
examples/out/bin/curr.i386.bin:     file format binary


Disassembly of section .data:

00000000 <.data>:
       0:	03 c0                	add    eax,eax
       2:	7f fc                	jg     0x0
       4:	dc 00                	fadd   QWORD PTR [eax]
       6:	00 01                	add    BYTE PTR [ecx],al
       8:	fc                   	cld
       9:	00 00                	add    BYTE PTR [eax],al
       b:	00 55 89             	add    BYTE PTR [ebp-0x77],dl
       e:	e5 81                	in     eax,0x81
      10:	ec                   	in     al,dx
      11:	00 00                	add    BYTE PTR [eax],al
      13:	00 00                	add    BYTE PTR [eax],al
      15:	e8 87 0e 00 00       	call   0xea1
      1a:	e8 e9 ff ff ff       	call   0x8
      1f:	c9                   	leave
      20:	c3                   	ret
      21:	55                   	push   ebp
      22:	89 e5                	mov    ebp,esp
      24:	81 ec 08 00 00 00    	sub    esp,0x8
      2a:	8b 45 08             	mov    eax,DWORD PTR [ebp+0x8]
      2d:	89 45 fc             	mov    DWORD PTR [ebp-0x4],eax
      30:	b8 00 00 00 00       	mov    eax,0x0
      35:	89 45 f8             	mov    DWORD PTR [ebp-0x8],eax
      38:	8b 45 10             	mov    eax,DWORD PTR [ebp+0x10]
      3b:	c1 e8 02             	shr    eax,0x2
      3e:	8b 4d f8             	mov    ecx,DWORD PTR [ebp-0x8]
      41:	39 c1                	cmp    ecx,eax
      43:	0f 83 22 00 00 00    	jae    0x6b
      49:	e9 0b 00 00 00       	jmp    0x59
      4e:	8b 45 f8             	mov    eax,DWORD PTR [ebp-0x8]
      51:	89 c1                	mov    ecx,eax
      53:	40                   	inc    eax
      54:	89 45 f8             	mov    DWORD PTR [ebp-0x8],eax
      57:	eb df                	jmp    0x38
      59:	8b 45 fc             	mov    eax,DWORD PTR [ebp-0x4]
      5c:	89 c1                	mov    ecx,eax
      5e:	83 c0 04             	add    eax,0x4
      61:	89 45 fc             	mov    DWORD PTR [ebp-0x4],eax
      64:	8b 45 0c             	mov    eax,DWORD PTR [ebp+0xc]
      67:	89 01                	mov    DWORD PTR [ecx],eax
      69:	eb e3                	jmp    0x4e
      6b:	8b 45 08             	mov    eax,DWORD PTR [ebp+0x8]
      6e:	c9                   	leave
      6f:	c3                   	ret
      70:	55                   	push   ebp
      71:	89 e5                	mov    ebp,esp
      73:	81 ec 0c 00 00 00    	sub    esp,0xc
      79:	8b 45 08             	mov    eax,DWORD PTR [ebp+0x8]
      7c:	89 45 fc             	mov    DWORD PTR [ebp-0x4],eax
      7f:	8b 45 0c             	mov    eax,DWORD PTR [ebp+0xc]
      82:	89 45 f8             	mov    DWORD PTR [ebp-0x8],eax
      85:	b8 00 00 00 00       	mov    eax,0x0
      8a:	89 45 f4             	mov    DWORD PTR [ebp-0xc],eax
      8d:	8b 45 10             	mov    eax,DWORD PTR [ebp+0x10]
      90:	c1 e8 02             	shr    eax,0x2
      93:	8b 4d f4             	mov    ecx,DWORD PTR [ebp-0xc]
      96:	39 c1                	cmp    ecx,eax
      98:	0f 83 2c 00 00 00    	jae    0xca
      9e:	e9 0b 00 00 00       	jmp    0xae
      a3:	8b 45 f4             	mov    eax,DWORD PTR [ebp-0xc]
      a6:	89 c1                	mov    ecx,eax
      a8:	40                   	inc    eax
      a9:	89 45 f4             	mov    DWORD PTR [ebp-0xc],eax
      ac:	eb df                	jmp    0x8d
      ae:	8b 45 fc             	mov    eax,DWORD PTR [ebp-0x4]
      b1:	89 c1                	mov    ecx,eax
      b3:	83 c0 04             	add    eax,0x4
      b6:	89 45 fc             	mov    DWORD PTR [ebp-0x4],eax
      b9:	8b 45 f8             	mov    eax,DWORD PTR [ebp-0x8]
      bc:	89 c2                	mov    edx,eax
      be:	83 c0 04             	add    eax,0x4
      c1:	89 45 f8             	mov    DWORD PTR [ebp-0x8],eax
      c4:	8b 12                	mov    edx,DWORD PTR [edx]
      c6:	89 11                	mov    DWORD PTR [ecx],edx
      c8:	eb d9                	jmp    0xa3
      ca:	8b 45 10             	mov    eax,DWORD PTR [ebp+0x10]
      cd:	c9                   	leave
      ce:	c3                   	ret
      cf:	55                   	push   ebp
      d0:	89 e5                	mov    ebp,esp
      d2:	81 ec 00 00 00 00    	sub    esp,0x0
      d8:	8b 05 00 b0 04 08    	mov    eax,DWORD PTR ds:0x804b000
      de:	8b 4d 08             	mov    ecx,DWORD PTR [ebp+0x8]
      e1:	89 08                	mov    DWORD PTR [eax],ecx
      e3:	c9                   	leave
      e4:	c3                   	ret
      e5:	55                   	push   ebp
      e6:	89 e5                	mov    ebp,esp
      e8:	81 ec 1c 00 00 00    	sub    esp,0x1c
      ee:	8b 45 08             	mov    eax,DWORD PTR [ebp+0x8]
      f1:	89 45 fc             	mov    DWORD PTR [ebp-0x4],eax
      f4:	b8 00 00 00 00       	mov    eax,0x0
      f9:	89 45 f4             	mov    DWORD PTR [ebp-0xc],eax
      fc:	8b 45 fc             	mov    eax,DWORD PTR [ebp-0x4]
      ff:	89 c1                	mov    ecx,eax
     101:	83 c0 04             	add    eax,0x4
     104:	89 45 fc             	mov    DWORD PTR [ebp-0x4],eax
     107:	8b 09                	mov    ecx,DWORD PTR [ecx]
     109:	89 4d f8             	mov    DWORD PTR [ebp-0x8],ecx
     10c:	8b 45 f4             	mov    eax,DWORD PTR [ebp-0xc]
     10f:	83 c0 04             	add    eax,0x4
     112:	89 45 f4             	mov    DWORD PTR [ebp-0xc],eax
     115:	8b 45 f8             	mov    eax,DWORD PTR [ebp-0x8]
     118:	c1 f8 18             	sar    eax,0x18
     11b:	81 e0 ff 00 00 00    	and    eax,0xff
     121:	89 45 f0             	mov    DWORD PTR [ebp-0x10],eax
     124:	8b 45 f8             	mov    eax,DWORD PTR [ebp-0x8]
     127:	c1 f8 10             	sar    eax,0x10
     12a:	81 e0 ff 00 00 00    	and    eax,0xff
     130:	89 45 ec             	mov    DWORD PTR [ebp-0x14],eax
     133:	8b 45 f8             	mov    eax,DWORD PTR [ebp-0x8]
     136:	c1 f8 08             	sar    eax,0x8
     139:	81 e0 ff 00 00 00    	and    eax,0xff
     13f:	89 45 e8             	mov    DWORD PTR [ebp-0x18],eax
     142:	8b 45 f8             	mov    eax,DWORD PTR [ebp-0x8]
     145:	81 e0 ff 00 00 00    	and    eax,0xff
     14b:	89 45 e4             	mov    DWORD PTR [ebp-0x1c],eax
     14e:	8b 45 f0             	mov    eax,DWORD PTR [ebp-0x10]
     151:	83 f8 00             	cmp    eax,0x0
     154:	0f 85 11 00 00 00    	jne    0x16b
     15a:	8b 45 f4             	mov    eax,DWORD PTR [ebp-0xc]
     15d:	83 f8 04             	cmp    eax,0x4
     160:	0f 84 05 00 00 00    	je     0x16b
     166:	e9 dd 00 00 00       	jmp    0x248
     16b:	8b 45 f0             	mov    eax,DWORD PTR [ebp-0x10]
     16e:	83 f8 00             	cmp    eax,0x0
     171:	0f 84 15 00 00 00    	je     0x18c
     177:	8b 45 f8             	mov    eax,DWORD PTR [ebp-0x8]
     17a:	c1 f8 18             	sar    eax,0x18
     17d:	81 e0 ff 00 00 00    	and    eax,0xff
     183:	50                   	push   eax
     184:	e8 46 ff ff ff       	call   0xcf
     189:	83 c4 04             	add    esp,0x4
     18c:	8b 45 ec             	mov    eax,DWORD PTR [ebp-0x14]
     18f:	83 f8 00             	cmp    eax,0x0
     192:	0f 85 11 00 00 00    	jne    0x1a9
     198:	8b 45 f4             	mov    eax,DWORD PTR [ebp-0xc]
     19b:	83 f8 04             	cmp    eax,0x4
     19e:	0f 84 05 00 00 00    	je     0x1a9
     1a4:	e9 9f 00 00 00       	jmp    0x248
     1a9:	8b 45 ec             	mov    eax,DWORD PTR [ebp-0x14]
     1ac:	83 f8 00             	cmp    eax,0x0
     1af:	0f 84 15 00 00 00    	je     0x1ca
     1b5:	8b 45 f8             	mov    eax,DWORD PTR [ebp-0x8]
     1b8:	c1 f8 10             	sar    eax,0x10
     1bb:	81 e0 ff 00 00 00    	and    eax,0xff
     1c1:	50                   	push   eax
     1c2:	e8 08 ff ff ff       	call   0xcf
     1c7:	83 c4 04             	add    esp,0x4
     1ca:	8b 45 e8             	mov    eax,DWORD PTR [ebp-0x18]
     1cd:	83 f8 00             	cmp    eax,0x0
     1d0:	0f 85 11 00 00 00    	jne    0x1e7
     1d6:	8b 45 f4             	mov    eax,DWORD PTR [ebp-0xc]
     1d9:	83 f8 04             	cmp    eax,0x4
     1dc:	0f 84 05 00 00 00    	je     0x1e7
     1e2:	e9 61 00 00 00       	jmp    0x248
     1e7:	8b 45 e8             	mov    eax,DWORD PTR [ebp-0x18]
     1ea:	83 f8 00             	cmp    eax,0x0
     1ed:	0f 84 15 00 00 00    	je     0x208
     1f3:	8b 45 f8             	mov    eax,DWORD PTR [ebp-0x8]
     1f6:	c1 f8 08             	sar    eax,0x8
     1f9:	81 e0 ff 00 00 00    	and    eax,0xff
     1ff:	50                   	push   eax
     200:	e8 ca fe ff ff       	call   0xcf
     205:	83 c4 04             	add    esp,0x4
     208:	8b 45 e4             	mov    eax,DWORD PTR [ebp-0x1c]
     20b:	83 f8 00             	cmp    eax,0x0
     20e:	0f 85 11 00 00 00    	jne    0x225
     214:	8b 45 f4             	mov    eax,DWORD PTR [ebp-0xc]
     217:	83 f8 04             	cmp    eax,0x4
     21a:	0f 84 05 00 00 00    	je     0x225
     220:	e9 23 00 00 00       	jmp    0x248
     225:	8b 45 e4             	mov    eax,DWORD PTR [ebp-0x1c]
     228:	83 f8 00             	cmp    eax,0x0
     22b:	0f 84 12 00 00 00    	je     0x243
     231:	8b 45 f8             	mov    eax,DWORD PTR [ebp-0x8]
     234:	81 e0 ff 00 00 00    	and    eax,0xff
     23a:	50                   	push   eax
     23b:	e8 8f fe ff ff       	call   0xcf
     240:	83 c4 04             	add    esp,0x4
     243:	e9 b4 fe ff ff       	jmp    0xfc
     248:	c9                   	leave
     249:	c3                   	ret
     24a:	55                   	push   ebp
     24b:	89 e5                	mov    ebp,esp
     24d:	81 ec 0c 00 00 00    	sub    esp,0xc
     253:	8b 45 08             	mov    eax,DWORD PTR [ebp+0x8]
     256:	89 45 fc             	mov    DWORD PTR [ebp-0x4],eax
     259:	b8 00 00 00 00       	mov    eax,0x0
     25e:	89 45 f4             	mov    DWORD PTR [ebp-0xc],eax
     261:	8b 45 fc             	mov    eax,DWORD PTR [ebp-0x4]
     264:	89 c1                	mov    ecx,eax
     266:	83 c0 04             	add    eax,0x4
     269:	89 45 fc             	mov    DWORD PTR [ebp-0x4],eax
     26c:	8b 09                	mov    ecx,DWORD PTR [ecx]
     26e:	89 4d f8             	mov    DWORD PTR [ebp-0x8],ecx
     271:	8b 45 f4             	mov    eax,DWORD PTR [ebp-0xc]
     274:	83 c0 04             	add    eax,0x4
     277:	89 45 f4             	mov    DWORD PTR [ebp-0xc],eax
     27a:	8b 45 f8             	mov    eax,DWORD PTR [ebp-0x8]
     27d:	c1 f8 18             	sar    eax,0x18
     280:	81 e0 ff 00 00 00    	and    eax,0xff
     286:	83 f8 00             	cmp    eax,0x0
     289:	0f 85 09 00 00 00    	jne    0x298
     28f:	8b 45 f4             	mov    eax,DWORD PTR [ebp-0xc]
     292:	48                   	dec    eax
     293:	e9 62 00 00 00       	jmp    0x2fa
     298:	8b 45 f8             	mov    eax,DWORD PTR [ebp-0x8]
     29b:	c1 f8 10             	sar    eax,0x10
     29e:	81 e0 ff 00 00 00    	and    eax,0xff
     2a4:	83 f8 00             	cmp    eax,0x0
     2a7:	0f 85 0b 00 00 00    	jne    0x2b8
     2ad:	8b 45 f4             	mov    eax,DWORD PTR [ebp-0xc]
     2b0:	83 e8 02             	sub    eax,0x2
     2b3:	e9 42 00 00 00       	jmp    0x2fa
     2b8:	8b 45 f8             	mov    eax,DWORD PTR [ebp-0x8]
     2bb:	c1 f8 08             	sar    eax,0x8
     2be:	81 e0 ff 00 00 00    	and    eax,0xff
     2c4:	83 f8 00             	cmp    eax,0x0
     2c7:	0f 85 0b 00 00 00    	jne    0x2d8
     2cd:	8b 45 f4             	mov    eax,DWORD PTR [ebp-0xc]
     2d0:	83 e8 03             	sub    eax,0x3
     2d3:	e9 22 00 00 00       	jmp    0x2fa
     2d8:	8b 45 f8             	mov    eax,DWORD PTR [ebp-0x8]
     2db:	81 e0 ff 00 00 00    	and    eax,0xff
     2e1:	83 f8 00             	cmp    eax,0x0
     2e4:	0f 85 0b 00 00 00    	jne    0x2f5
     2ea:	8b 45 f4             	mov    eax,DWORD PTR [ebp-0xc]
     2ed:	83 e8 04             	sub    eax,0x4
     2f0:	e9 05 00 00 00       	jmp    0x2fa
     2f5:	e9 67 ff ff ff       	jmp    0x261
     2fa:	c9                   	leave
     2fb:	c3                   	ret
     2fc:	55                   	push   ebp
     2fd:	89 e5                	mov    ebp,esp
     2ff:	81 ec 0c 00 00 00    	sub    esp,0xc
     305:	b8 01 00 00 00       	mov    eax,0x1
     30a:	89 45 fc             	mov    DWORD PTR [ebp-0x4],eax
     30d:	b8 00 00 00 00       	mov    eax,0x0
     312:	89 45 f8             	mov    DWORD PTR [ebp-0x8],eax
     315:	8b 45 08             	mov    eax,DWORD PTR [ebp+0x8]
     318:	83 f8 00             	cmp    eax,0x0
     31b:	0f 8d 15 00 00 00    	jge    0x336
     321:	b8 01 00 00 00       	mov    eax,0x1
     326:	89 45 f8             	mov    DWORD PTR [ebp-0x8],eax
     329:	b8 00 00 00 00       	mov    eax,0x0
     32e:	8b 4d 08             	mov    ecx,DWORD PTR [ebp+0x8]
     331:	29 c8                	sub    eax,ecx
     333:	89 45 08             	mov    DWORD PTR [ebp+0x8],eax
     336:	8b 45 08             	mov    eax,DWORD PTR [ebp+0x8]
     339:	8b 4d fc             	mov    ecx,DWORD PTR [ebp-0x4]
     33c:	99                   	cdq
     33d:	f7 f9                	idiv   ecx
     33f:	83 f8 09             	cmp    eax,0x9
     342:	0f 8e 10 00 00 00    	jle    0x358
     348:	8b 45 fc             	mov    eax,DWORD PTR [ebp-0x4]
     34b:	b9 0a 00 00 00       	mov    ecx,0xa
     350:	0f af c1             	imul   eax,ecx
     353:	89 45 fc             	mov    DWORD PTR [ebp-0x4],eax
     356:	eb de                	jmp    0x336
     358:	8b 45 f8             	mov    eax,DWORD PTR [ebp-0x8]
     35b:	83 f8 00             	cmp    eax,0x0
     35e:	0f 8e 13 00 00 00    	jle    0x377
     364:	b8 2d 00 00 00       	mov    eax,0x2d
     369:	50                   	push   eax
     36a:	e8 60 fd ff ff       	call   0xcf
     36f:	83 c4 04             	add    esp,0x4
     372:	e9 00 00 00 00       	jmp    0x377
     377:	8b 45 fc             	mov    eax,DWORD PTR [ebp-0x4]
     37a:	83 f8 00             	cmp    eax,0x0
     37d:	0f 8e 33 00 00 00    	jle    0x3b6
     383:	8b 45 08             	mov    eax,DWORD PTR [ebp+0x8]
     386:	8b 4d fc             	mov    ecx,DWORD PTR [ebp-0x4]
     389:	99                   	cdq
     38a:	f7 f9                	idiv   ecx
     38c:	b9 0a 00 00 00       	mov    ecx,0xa
     391:	99                   	cdq
     392:	f7 f9                	idiv   ecx
     394:	89 55 f4             	mov    DWORD PTR [ebp-0xc],edx
     397:	8b 45 f4             	mov    eax,DWORD PTR [ebp-0xc]
     39a:	83 c0 30             	add    eax,0x30
     39d:	50                   	push   eax
     39e:	e8 2c fd ff ff       	call   0xcf
     3a3:	83 c4 04             	add    esp,0x4
     3a6:	8b 45 fc             	mov    eax,DWORD PTR [ebp-0x4]
     3a9:	b9 0a 00 00 00       	mov    ecx,0xa
     3ae:	99                   	cdq
     3af:	f7 f9                	idiv   ecx
     3b1:	89 45 fc             	mov    DWORD PTR [ebp-0x4],eax
     3b4:	eb c1                	jmp    0x377
     3b6:	c9                   	leave
     3b7:	c3                   	ret
     3b8:	55                   	push   ebp
     3b9:	89 e5                	mov    ebp,esp
     3bb:	81 ec 04 00 00 00    	sub    esp,0x4
     3c1:	8b 45 08             	mov    eax,DWORD PTR [ebp+0x8]
     3c4:	8b 4d 10             	mov    ecx,DWORD PTR [ebp+0x10]
     3c7:	0f af c1             	imul   eax,ecx
     3ca:	8b 4d 0c             	mov    ecx,DWORD PTR [ebp+0xc]
     3cd:	8b 55 14             	mov    edx,DWORD PTR [ebp+0x14]
     3d0:	0f af ca             	imul   ecx,edx
     3d3:	01 c8                	add    eax,ecx
     3d5:	89 45 fc             	mov    DWORD PTR [ebp-0x4],eax
     3d8:	8b 45 fc             	mov    eax,DWORD PTR [ebp-0x4]
     3db:	c9                   	leave
     3dc:	c3                   	ret
     3dd:	55                   	push   ebp
     3de:	89 e5                	mov    ebp,esp
     3e0:	81 ec 14 00 00 00    	sub    esp,0x14
     3e6:	b8 08 00 00 00       	mov    eax,0x8
     3eb:	50                   	push   eax
     3ec:	b8 00 00 00 00       	mov    eax,0x0
     3f1:	50                   	push   eax
     3f2:	8d 45 f8             	lea    eax,[ebp-0x8]
     3f5:	50                   	push   eax
     3f6:	e8 26 fc ff ff       	call   0x21
     3fb:	83 c4 0c             	add    esp,0xc
     3fe:	b8 f9 ff ff ff       	mov    eax,0xfffffff9
     403:	89 45 f8             	mov    DWORD PTR [ebp-0x8],eax
     406:	b8 02 00 00 00       	mov    eax,0x2
     40b:	89 45 fc             	mov    DWORD PTR [ebp-0x4],eax
     40e:	b8 08 00 00 00       	mov    eax,0x8
     413:	50                   	push   eax
     414:	b8 00 00 00 00       	mov    eax,0x0
     419:	50                   	push   eax
     41a:	8d 45 f0             	lea    eax,[ebp-0x10]
     41d:	50                   	push   eax
     41e:	e8 fe fb ff ff       	call   0x21
     423:	83 c4 0c             	add    esp,0xc
     426:	b8 03 00 00 00       	mov    eax,0x3
     42b:	89 45 f0             	mov    DWORD PTR [ebp-0x10],eax
     42e:	b8 fc ff ff ff       	mov    eax,0xfffffffc
     433:	89 45 f4             	mov    DWORD PTR [ebp-0xc],eax
     436:	b8 00 a0 04 08       	mov    eax,0x804a000
     43b:	50                   	push   eax
     43c:	e8 a4 fc ff ff       	call   0xe5
     441:	83 c4 04             	add    esp,0x4
     444:	b8 0c a0 04 08       	mov    eax,0x804a00c
     449:	50                   	push   eax
     44a:	e8 96 fc ff ff       	call   0xe5
     44f:	83 c4 04             	add    esp,0x4
     452:	8b 45 f8             	mov    eax,DWORD PTR [ebp-0x8]
     455:	50                   	push   eax
     456:	e8 a1 fe ff ff       	call   0x2fc
     45b:	83 c4 04             	add    esp,0x4
     45e:	b8 20 00 00 00       	mov    eax,0x20
     463:	50                   	push   eax
     464:	e8 66 fc ff ff       	call   0xcf
     469:	83 c4 04             	add    esp,0x4
     46c:	b8 18 a0 04 08       	mov    eax,0x804a018
     471:	50                   	push   eax
     472:	e8 6e fc ff ff       	call   0xe5
     477:	83 c4 04             	add    esp,0x4
     47a:	8b 45 fc             	mov    eax,DWORD PTR [ebp-0x4]
     47d:	50                   	push   eax
     47e:	e8 79 fe ff ff       	call   0x2fc
     483:	83 c4 04             	add    esp,0x4
     486:	b8 20 00 00 00       	mov    eax,0x20
     48b:	50                   	push   eax
     48c:	e8 3e fc ff ff       	call   0xcf
     491:	83 c4 04             	add    esp,0x4
     494:	b8 0a 00 00 00       	mov    eax,0xa
     499:	50                   	push   eax
     49a:	e8 30 fc ff ff       	call   0xcf
     49f:	83 c4 04             	add    esp,0x4
     4a2:	b8 20 a0 04 08       	mov    eax,0x804a020
     4a7:	50                   	push   eax
     4a8:	e8 38 fc ff ff       	call   0xe5
     4ad:	83 c4 04             	add    esp,0x4
     4b0:	8b 45 f0             	mov    eax,DWORD PTR [ebp-0x10]
     4b3:	50                   	push   eax
     4b4:	e8 43 fe ff ff       	call   0x2fc
     4b9:	83 c4 04             	add    esp,0x4
     4bc:	b8 20 00 00 00       	mov    eax,0x20
     4c1:	50                   	push   eax
     4c2:	e8 08 fc ff ff       	call   0xcf
     4c7:	83 c4 04             	add    esp,0x4
     4ca:	b8 2c a0 04 08       	mov    eax,0x804a02c
     4cf:	50                   	push   eax
     4d0:	e8 10 fc ff ff       	call   0xe5
     4d5:	83 c4 04             	add    esp,0x4
     4d8:	8b 45 f4             	mov    eax,DWORD PTR [ebp-0xc]
     4db:	50                   	push   eax
     4dc:	e8 1b fe ff ff       	call   0x2fc
     4e1:	83 c4 04             	add    esp,0x4
     4e4:	b8 20 00 00 00       	mov    eax,0x20
     4e9:	50                   	push   eax
     4ea:	e8 e0 fb ff ff       	call   0xcf
     4ef:	83 c4 04             	add    esp,0x4
     4f2:	b8 0a 00 00 00       	mov    eax,0xa
     4f7:	50                   	push   eax
     4f8:	e8 d2 fb ff ff       	call   0xcf
     4fd:	83 c4 04             	add    esp,0x4
     500:	b8 34 a0 04 08       	mov    eax,0x804a034
     505:	50                   	push   eax
     506:	e8 da fb ff ff       	call   0xe5
     50b:	83 c4 04             	add    esp,0x4
     50e:	81 ec 08 00 00 00    	sub    esp,0x8
     514:	89 e0                	mov    eax,esp
     516:	b9 08 00 00 00       	mov    ecx,0x8
     51b:	51                   	push   ecx
     51c:	8d 4d f0             	lea    ecx,[ebp-0x10]
     51f:	51                   	push   ecx
     520:	50                   	push   eax
     521:	89 45 ec             	mov    DWORD PTR [ebp-0x14],eax
     524:	e8 47 fb ff ff       	call   0x70
     529:	83 c4 0c             	add    esp,0xc
     52c:	81 ec 08 00 00 00    	sub    esp,0x8
     532:	89 e0                	mov    eax,esp
     534:	b9 08 00 00 00       	mov    ecx,0x8
     539:	51                   	push   ecx
     53a:	8d 4d f8             	lea    ecx,[ebp-0x8]
     53d:	51                   	push   ecx
     53e:	50                   	push   eax
     53f:	89 45 ec             	mov    DWORD PTR [ebp-0x14],eax
     542:	e8 29 fb ff ff       	call   0x70
     547:	83 c4 0c             	add    esp,0xc
     54a:	e8 69 fe ff ff       	call   0x3b8
     54f:	83 c4 10             	add    esp,0x10
     552:	50                   	push   eax
     553:	e8 a4 fd ff ff       	call   0x2fc
     558:	83 c4 04             	add    esp,0x4
     55b:	b8 01 00 00 00       	mov    eax,0x1
     560:	c9                   	leave
     561:	c3                   	ret
     562:	55                   	push   ebp
     563:	89 e5                	mov    ebp,esp
     565:	81 ec 10 00 00 00    	sub    esp,0x10
     56b:	b8 00 00 00 00       	mov    eax,0x0
     570:	89 45 f4             	mov    DWORD PTR [ebp-0xc],eax
     573:	8b 45 0c             	mov    eax,DWORD PTR [ebp+0xc]
     576:	48                   	dec    eax
     577:	8b 4d f4             	mov    ecx,DWORD PTR [ebp-0xc]
     57a:	39 c1                	cmp    ecx,eax
     57c:	0f 8d c3 00 00 00    	jge    0x645
     582:	e9 0b 00 00 00       	jmp    0x592
     587:	8b 45 f4             	mov    eax,DWORD PTR [ebp-0xc]
     58a:	89 c1                	mov    ecx,eax
     58c:	40                   	inc    eax
     58d:	89 45 f4             	mov    DWORD PTR [ebp-0xc],eax
     590:	eb e1                	jmp    0x573
     592:	b8 00 00 00 00       	mov    eax,0x0
     597:	89 45 f8             	mov    DWORD PTR [ebp-0x8],eax
     59a:	b8 00 00 00 00       	mov    eax,0x0
     59f:	89 45 f0             	mov    DWORD PTR [ebp-0x10],eax
     5a2:	8b 45 0c             	mov    eax,DWORD PTR [ebp+0xc]
     5a5:	48                   	dec    eax
     5a6:	8b 4d f4             	mov    ecx,DWORD PTR [ebp-0xc]
     5a9:	29 c8                	sub    eax,ecx
     5ab:	8b 4d f0             	mov    ecx,DWORD PTR [ebp-0x10]
     5ae:	39 c1                	cmp    ecx,eax
     5b0:	0f 8d 79 00 00 00    	jge    0x62f
     5b6:	e9 0b 00 00 00       	jmp    0x5c6
     5bb:	8b 45 f0             	mov    eax,DWORD PTR [ebp-0x10]
     5be:	89 c1                	mov    ecx,eax
     5c0:	40                   	inc    eax
     5c1:	89 45 f0             	mov    DWORD PTR [ebp-0x10],eax
     5c4:	eb dc                	jmp    0x5a2
     5c6:	8b 45 f0             	mov    eax,DWORD PTR [ebp-0x10]
     5c9:	c1 e0 02             	shl    eax,0x2
     5cc:	8b 4d 08             	mov    ecx,DWORD PTR [ebp+0x8]
     5cf:	01 c1                	add    ecx,eax
     5d1:	8b 45 f0             	mov    eax,DWORD PTR [ebp-0x10]
     5d4:	40                   	inc    eax
     5d5:	c1 e0 02             	shl    eax,0x2
     5d8:	8b 55 08             	mov    edx,DWORD PTR [ebp+0x8]
     5db:	01 c2                	add    edx,eax
     5dd:	8b 09                	mov    ecx,DWORD PTR [ecx]
     5df:	8b 12                	mov    edx,DWORD PTR [edx]
     5e1:	39 d1                	cmp    ecx,edx
     5e3:	0f 8e 44 00 00 00    	jle    0x62d
     5e9:	8b 45 f0             	mov    eax,DWORD PTR [ebp-0x10]
     5ec:	c1 e0 02             	shl    eax,0x2
     5ef:	8b 4d 08             	mov    ecx,DWORD PTR [ebp+0x8]
     5f2:	01 c1                	add    ecx,eax
     5f4:	8b 09                	mov    ecx,DWORD PTR [ecx]
     5f6:	89 4d fc             	mov    DWORD PTR [ebp-0x4],ecx
     5f9:	8b 45 f0             	mov    eax,DWORD PTR [ebp-0x10]
     5fc:	c1 e0 02             	shl    eax,0x2
     5ff:	8b 4d 08             	mov    ecx,DWORD PTR [ebp+0x8]
     602:	01 c1                	add    ecx,eax
     604:	8b 45 f0             	mov    eax,DWORD PTR [ebp-0x10]
     607:	40                   	inc    eax
     608:	c1 e0 02             	shl    eax,0x2
     60b:	8b 55 08             	mov    edx,DWORD PTR [ebp+0x8]
     60e:	01 c2                	add    edx,eax
     610:	8b 12                	mov    edx,DWORD PTR [edx]
     612:	89 11                	mov    DWORD PTR [ecx],edx
     614:	8b 45 f0             	mov    eax,DWORD PTR [ebp-0x10]
     617:	40                   	inc    eax
     618:	c1 e0 02             	shl    eax,0x2
     61b:	8b 4d 08             	mov    ecx,DWORD PTR [ebp+0x8]
     61e:	01 c1                	add    ecx,eax
     620:	8b 45 fc             	mov    eax,DWORD PTR [ebp-0x4]
     623:	89 01                	mov    DWORD PTR [ecx],eax
     625:	b8 01 00 00 00       	mov    eax,0x1
     62a:	89 45 f8             	mov    DWORD PTR [ebp-0x8],eax
     62d:	eb 8c                	jmp    0x5bb
     62f:	8b 45 f8             	mov    eax,DWORD PTR [ebp-0x8]
     632:	83 f8 00             	cmp    eax,0x0
     635:	0f 85 05 00 00 00    	jne    0x640
     63b:	e9 05 00 00 00       	jmp    0x645
     640:	e9 42 ff ff ff       	jmp    0x587
     645:	c9                   	leave
     646:	c3                   	ret
     647:	55                   	push   ebp
     648:	89 e5                	mov    ebp,esp
     64a:	81 ec 28 00 00 00    	sub    esp,0x28
     650:	b8 18 00 00 00       	mov    eax,0x18
     655:	50                   	push   eax
     656:	b8 00 00 00 00       	mov    eax,0x0
     65b:	50                   	push   eax
     65c:	8d 45 e8             	lea    eax,[ebp-0x18]
     65f:	50                   	push   eax
     660:	e8 bc f9 ff ff       	call   0x21
     665:	83 c4 0c             	add    esp,0xc
     668:	b8 ff ff ff ff       	mov    eax,0xffffffff
     66d:	89 45 e8             	mov    DWORD PTR [ebp-0x18],eax
     670:	b8 cc fd ff ff       	mov    eax,0xfffffdcc
     675:	89 45 ec             	mov    DWORD PTR [ebp-0x14],eax
     678:	b8 a4 01 00 00       	mov    eax,0x1a4
     67d:	89 45 f0             	mov    DWORD PTR [ebp-0x10],eax
     680:	b8 45 00 00 00       	mov    eax,0x45
     685:	89 45 f4             	mov    DWORD PTR [ebp-0xc],eax
     688:	b8 b0 04 00 00       	mov    eax,0x4b0
     68d:	89 45 f8             	mov    DWORD PTR [ebp-0x8],eax
     690:	b8 2c 01 00 00       	mov    eax,0x12c
     695:	89 45 fc             	mov    DWORD PTR [ebp-0x4],eax
     698:	b8 06 00 00 00       	mov    eax,0x6
     69d:	89 45 e4             	mov    DWORD PTR [ebp-0x1c],eax
     6a0:	b8 02 00 00 00       	mov    eax,0x2
     6a5:	89 45 d8             	mov    DWORD PTR [ebp-0x28],eax
     6a8:	b8 46 a0 04 08       	mov    eax,0x804a046
     6ad:	50                   	push   eax
     6ae:	e8 32 fa ff ff       	call   0xe5
     6b3:	83 c4 04             	add    esp,0x4
     6b6:	b8 00 00 00 00       	mov    eax,0x0
     6bb:	89 45 e0             	mov    DWORD PTR [ebp-0x20],eax
     6be:	8b 45 e0             	mov    eax,DWORD PTR [ebp-0x20]
     6c1:	8b 4d e4             	mov    ecx,DWORD PTR [ebp-0x1c]
     6c4:	39 c8                	cmp    eax,ecx
     6c6:	0f 8d 3c 00 00 00    	jge    0x708
     6cc:	e9 0b 00 00 00       	jmp    0x6dc
     6d1:	8b 45 e0             	mov    eax,DWORD PTR [ebp-0x20]
     6d4:	89 c1                	mov    ecx,eax
     6d6:	40                   	inc    eax
     6d7:	89 45 e0             	mov    DWORD PTR [ebp-0x20],eax
     6da:	eb e2                	jmp    0x6be
     6dc:	8b 45 e0             	mov    eax,DWORD PTR [ebp-0x20]
     6df:	c1 e0 02             	shl    eax,0x2
     6e2:	8d 4d e8             	lea    ecx,[ebp-0x18]
     6e5:	01 c1                	add    ecx,eax
     6e7:	8b 09                	mov    ecx,DWORD PTR [ecx]
     6e9:	89 4d dc             	mov    DWORD PTR [ebp-0x24],ecx
     6ec:	8b 45 dc             	mov    eax,DWORD PTR [ebp-0x24]
     6ef:	50                   	push   eax
     6f0:	e8 07 fc ff ff       	call   0x2fc
     6f5:	83 c4 04             	add    esp,0x4
     6f8:	b8 20 00 00 00       	mov    eax,0x20
     6fd:	50                   	push   eax
     6fe:	e8 cc f9 ff ff       	call   0xcf
     703:	83 c4 04             	add    esp,0x4
     706:	eb c9                	jmp    0x6d1
     708:	b8 0a 00 00 00       	mov    eax,0xa
     70d:	50                   	push   eax
     70e:	e8 bc f9 ff ff       	call   0xcf
     713:	83 c4 04             	add    esp,0x4
     716:	8b 45 e4             	mov    eax,DWORD PTR [ebp-0x1c]
     719:	50                   	push   eax
     71a:	8d 45 e8             	lea    eax,[ebp-0x18]
     71d:	50                   	push   eax
     71e:	e8 3f fe ff ff       	call   0x562
     723:	83 c4 08             	add    esp,0x8
     726:	b8 55 a0 04 08       	mov    eax,0x804a055
     72b:	50                   	push   eax
     72c:	e8 b4 f9 ff ff       	call   0xe5
     731:	83 c4 04             	add    esp,0x4
     734:	b8 00 00 00 00       	mov    eax,0x0
     739:	89 45 e0             	mov    DWORD PTR [ebp-0x20],eax
     73c:	8b 45 e0             	mov    eax,DWORD PTR [ebp-0x20]
     73f:	8b 4d e4             	mov    ecx,DWORD PTR [ebp-0x1c]
     742:	39 c8                	cmp    eax,ecx
     744:	0f 8d 3c 00 00 00    	jge    0x786
     74a:	e9 0b 00 00 00       	jmp    0x75a
     74f:	8b 45 e0             	mov    eax,DWORD PTR [ebp-0x20]
     752:	89 c1                	mov    ecx,eax
     754:	40                   	inc    eax
     755:	89 45 e0             	mov    DWORD PTR [ebp-0x20],eax
     758:	eb e2                	jmp    0x73c
     75a:	8b 45 e0             	mov    eax,DWORD PTR [ebp-0x20]
     75d:	c1 e0 02             	shl    eax,0x2
     760:	8d 4d e8             	lea    ecx,[ebp-0x18]
     763:	01 c1                	add    ecx,eax
     765:	8b 09                	mov    ecx,DWORD PTR [ecx]
     767:	89 4d dc             	mov    DWORD PTR [ebp-0x24],ecx
     76a:	8b 45 dc             	mov    eax,DWORD PTR [ebp-0x24]
     76d:	50                   	push   eax
     76e:	e8 89 fb ff ff       	call   0x2fc
     773:	83 c4 04             	add    esp,0x4
     776:	b8 20 00 00 00       	mov    eax,0x20
     77b:	50                   	push   eax
     77c:	e8 4e f9 ff ff       	call   0xcf
     781:	83 c4 04             	add    esp,0x4
     784:	eb c9                	jmp    0x74f
     786:	c9                   	leave
     787:	c3                   	ret
     788:	55                   	push   ebp
     789:	89 e5                	mov    ebp,esp
     78b:	81 ec 04 00 00 00    	sub    esp,0x4
     791:	8b 45 08             	mov    eax,DWORD PTR [ebp+0x8]
     794:	83 f8 02             	cmp    eax,0x2
     797:	0f 8d 08 00 00 00    	jge    0x7a5
     79d:	8b 45 08             	mov    eax,DWORD PTR [ebp+0x8]
     7a0:	e9 26 00 00 00       	jmp    0x7cb
     7a5:	8b 45 08             	mov    eax,DWORD PTR [ebp+0x8]
     7a8:	48                   	dec    eax
     7a9:	50                   	push   eax
     7aa:	e8 d9 ff ff ff       	call   0x788
     7af:	83 c4 04             	add    esp,0x4
     7b2:	8b 4d 08             	mov    ecx,DWORD PTR [ebp+0x8]
     7b5:	83 e9 02             	sub    ecx,0x2
     7b8:	51                   	push   ecx
     7b9:	89 45 fc             	mov    DWORD PTR [ebp-0x4],eax
     7bc:	e8 c7 ff ff ff       	call   0x788
     7c1:	83 c4 04             	add    esp,0x4
     7c4:	8b 4d fc             	mov    ecx,DWORD PTR [ebp-0x4]
     7c7:	01 c1                	add    ecx,eax
     7c9:	89 c8                	mov    eax,ecx
     7cb:	c9                   	leave
     7cc:	c3                   	ret
     7cd:	55                   	push   ebp
     7ce:	89 e5                	mov    ebp,esp
     7d0:	81 ec 04 00 00 00    	sub    esp,0x4
     7d6:	b8 00 00 00 00       	mov    eax,0x0
     7db:	89 45 fc             	mov    DWORD PTR [ebp-0x4],eax
     7de:	8b 45 fc             	mov    eax,DWORD PTR [ebp-0x4]
     7e1:	83 f8 08             	cmp    eax,0x8
     7e4:	0f 8d 98 00 00 00    	jge    0x882
     7ea:	e9 0b 00 00 00       	jmp    0x7fa
     7ef:	8b 45 fc             	mov    eax,DWORD PTR [ebp-0x4]
     7f2:	89 c1                	mov    ecx,eax
     7f4:	40                   	inc    eax
     7f5:	89 45 fc             	mov    DWORD PTR [ebp-0x4],eax
     7f8:	eb e4                	jmp    0x7de
     7fa:	b8 64 a0 04 08       	mov    eax,0x804a064
     7ff:	50                   	push   eax
     800:	e8 e0 f8 ff ff       	call   0xe5
     805:	83 c4 04             	add    esp,0x4
     808:	b8 28 00 00 00       	mov    eax,0x28
     80d:	50                   	push   eax
     80e:	e8 bc f8 ff ff       	call   0xcf
     813:	83 c4 04             	add    esp,0x4
     816:	8b 45 fc             	mov    eax,DWORD PTR [ebp-0x4]
     819:	50                   	push   eax
     81a:	e8 dd fa ff ff       	call   0x2fc
     81f:	83 c4 04             	add    esp,0x4
     822:	b8 29 00 00 00       	mov    eax,0x29
     827:	50                   	push   eax
     828:	e8 a2 f8 ff ff       	call   0xcf
     82d:	83 c4 04             	add    esp,0x4
     830:	b8 20 00 00 00       	mov    eax,0x20
     835:	50                   	push   eax
     836:	e8 94 f8 ff ff       	call   0xcf
     83b:	83 c4 04             	add    esp,0x4
     83e:	b8 3d 00 00 00       	mov    eax,0x3d
     843:	50                   	push   eax
     844:	e8 86 f8 ff ff       	call   0xcf
     849:	83 c4 04             	add    esp,0x4
     84c:	b8 20 00 00 00       	mov    eax,0x20
     851:	50                   	push   eax
     852:	e8 78 f8 ff ff       	call   0xcf
     857:	83 c4 04             	add    esp,0x4
     85a:	8b 45 fc             	mov    eax,DWORD PTR [ebp-0x4]
     85d:	50                   	push   eax
     85e:	e8 25 ff ff ff       	call   0x788
     863:	83 c4 04             	add    esp,0x4
     866:	50                   	push   eax
     867:	e8 90 fa ff ff       	call   0x2fc
     86c:	83 c4 04             	add    esp,0x4
     86f:	b8 0a 00 00 00       	mov    eax,0xa
     874:	50                   	push   eax
     875:	e8 55 f8 ff ff       	call   0xcf
     87a:	83 c4 04             	add    esp,0x4
     87d:	e9 6d ff ff ff       	jmp    0x7ef
     882:	c9                   	leave
     883:	c3                   	ret
     884:	55                   	push   ebp
     885:	89 e5                	mov    ebp,esp
     887:	81 ec 08 00 00 00    	sub    esp,0x8
     88d:	b8 02 00 00 00       	mov    eax,0x2
     892:	89 45 fc             	mov    DWORD PTR [ebp-0x4],eax
     895:	b8 71 a0 04 08       	mov    eax,0x804a071
     89a:	50                   	push   eax
     89b:	e8 45 f8 ff ff       	call   0xe5
     8a0:	83 c4 04             	add    esp,0x4
     8a3:	b8 9d a0 04 08       	mov    eax,0x804a09d
     8a8:	50                   	push   eax
     8a9:	e8 37 f8 ff ff       	call   0xe5
     8ae:	83 c4 04             	add    esp,0x4
     8b1:	8b 45 fc             	mov    eax,DWORD PTR [ebp-0x4]
     8b4:	50                   	push   eax
     8b5:	e8 42 fa ff ff       	call   0x2fc
     8ba:	83 c4 04             	add    esp,0x4
     8bd:	b8 04 b0 04 08       	mov    eax,0x804b004
     8c2:	89 45 f8             	mov    DWORD PTR [ebp-0x8],eax
     8c5:	8b 45 f8             	mov    eax,DWORD PTR [ebp-0x8]
     8c8:	ff d0                	call   eax
     8ca:	b8 a6 a0 04 08       	mov    eax,0x804a0a6
     8cf:	50                   	push   eax
     8d0:	e8 10 f8 ff ff       	call   0xe5
     8d5:	83 c4 04             	add    esp,0x4
     8d8:	b8 c1 a0 04 08       	mov    eax,0x804a0c1
     8dd:	50                   	push   eax
     8de:	e8 02 f8 ff ff       	call   0xe5
     8e3:	83 c4 04             	add    esp,0x4
     8e6:	8b 45 fc             	mov    eax,DWORD PTR [ebp-0x4]
     8e9:	50                   	push   eax
     8ea:	e8 0d fa ff ff       	call   0x2fc
     8ef:	83 c4 04             	add    esp,0x4
     8f2:	c9                   	leave
     8f3:	c3                   	ret
     8f4:	55                   	push   ebp
     8f5:	89 e5                	mov    ebp,esp
     8f7:	81 ec 00 00 00 00    	sub    esp,0x0
     8fd:	b8 ca a0 04 08       	mov    eax,0x804a0ca
     902:	50                   	push   eax
     903:	e8 dd f7 ff ff       	call   0xe5
     908:	83 c4 04             	add    esp,0x4
     90b:	c9                   	leave
     90c:	c3                   	ret
     90d:	55                   	push   ebp
     90e:	89 e5                	mov    ebp,esp
     910:	81 ec 00 00 00 00    	sub    esp,0x0
     916:	b8 a2 a1 04 08       	mov    eax,0x804a1a2
     91b:	50                   	push   eax
     91c:	e8 c4 f7 ff ff       	call   0xe5
     921:	83 c4 04             	add    esp,0x4
     924:	c9                   	leave
     925:	c3                   	ret
     926:	55                   	push   ebp
     927:	89 e5                	mov    ebp,esp
     929:	81 ec 00 00 00 00    	sub    esp,0x0
     92f:	8b 45 08             	mov    eax,DWORD PTR [ebp+0x8]
     932:	b9 0d 89 04 08       	mov    ecx,0x804890d
     937:	89 08                	mov    DWORD PTR [eax],ecx
     939:	c9                   	leave
     93a:	c3                   	ret
     93b:	55                   	push   ebp
     93c:	89 e5                	mov    ebp,esp
     93e:	81 ec 00 00 00 00    	sub    esp,0x0
     944:	8b 45 08             	mov    eax,DWORD PTR [ebp+0x8]
     947:	b9 f4 88 04 08       	mov    ecx,0x80488f4
     94c:	89 08                	mov    DWORD PTR [eax],ecx
     94e:	c9                   	leave
     94f:	c3                   	ret
     950:	55                   	push   ebp
     951:	89 e5                	mov    ebp,esp
     953:	81 ec 04 00 00 00    	sub    esp,0x4
     959:	8b 45 08             	mov    eax,DWORD PTR [ebp+0x8]
     95c:	89 45 fc             	mov    DWORD PTR [ebp-0x4],eax
     95f:	8b 45 fc             	mov    eax,DWORD PTR [ebp-0x4]
     962:	8b 00                	mov    eax,DWORD PTR [eax]
     964:	ff d0                	call   eax
     966:	c9                   	leave
     967:	c3                   	ret
     968:	55                   	push   ebp
     969:	89 e5                	mov    ebp,esp
     96b:	81 ec 10 00 00 00    	sub    esp,0x10
     971:	8d 45 fc             	lea    eax,[ebp-0x4]
     974:	50                   	push   eax
     975:	e8 c1 ff ff ff       	call   0x93b
     97a:	83 c4 04             	add    esp,0x4
     97d:	8d 45 f0             	lea    eax,[ebp-0x10]
     980:	50                   	push   eax
     981:	e8 a0 ff ff ff       	call   0x926
     986:	83 c4 04             	add    esp,0x4
     989:	8d 45 f0             	lea    eax,[ebp-0x10]
     98c:	50                   	push   eax
     98d:	e8 be ff ff ff       	call   0x950
     992:	83 c4 04             	add    esp,0x4
     995:	b8 0a 00 00 00       	mov    eax,0xa
     99a:	50                   	push   eax
     99b:	e8 2f f7 ff ff       	call   0xcf
     9a0:	83 c4 04             	add    esp,0x4
     9a3:	8d 45 fc             	lea    eax,[ebp-0x4]
     9a6:	50                   	push   eax
     9a7:	e8 a4 ff ff ff       	call   0x950
     9ac:	83 c4 04             	add    esp,0x4
     9af:	c9                   	leave
     9b0:	c3                   	ret
     9b1:	55                   	push   ebp
     9b2:	89 e5                	mov    ebp,esp
     9b4:	81 ec 10 00 00 00    	sub    esp,0x10
     9ba:	b8 00 00 00 00       	mov    eax,0x0
     9bf:	89 45 fc             	mov    DWORD PTR [ebp-0x4],eax
     9c2:	8b 45 fc             	mov    eax,DWORD PTR [ebp-0x4]
     9c5:	8b 4d 0c             	mov    ecx,DWORD PTR [ebp+0xc]
     9c8:	39 c8                	cmp    eax,ecx
     9ca:	0f 8d dd 00 00 00    	jge    0xaad
     9d0:	e9 0b 00 00 00       	jmp    0x9e0
     9d5:	8b 45 fc             	mov    eax,DWORD PTR [ebp-0x4]
     9d8:	89 c1                	mov    ecx,eax
     9da:	40                   	inc    eax
     9db:	89 45 fc             	mov    DWORD PTR [ebp-0x4],eax
     9de:	eb e2                	jmp    0x9c2
     9e0:	b8 00 00 00 00       	mov    eax,0x0
     9e5:	89 45 f8             	mov    DWORD PTR [ebp-0x8],eax
     9e8:	8b 45 f8             	mov    eax,DWORD PTR [ebp-0x8]
     9eb:	8b 4d 1c             	mov    ecx,DWORD PTR [ebp+0x1c]
     9ee:	39 c8                	cmp    eax,ecx
     9f0:	0f 8d b2 00 00 00    	jge    0xaa8
     9f6:	e9 0b 00 00 00       	jmp    0xa06
     9fb:	8b 45 f8             	mov    eax,DWORD PTR [ebp-0x8]
     9fe:	89 c1                	mov    ecx,eax
     a00:	40                   	inc    eax
     a01:	89 45 f8             	mov    DWORD PTR [ebp-0x8],eax
     a04:	eb e2                	jmp    0x9e8
     a06:	8b 45 fc             	mov    eax,DWORD PTR [ebp-0x4]
     a09:	8b 4d 1c             	mov    ecx,DWORD PTR [ebp+0x1c]
     a0c:	0f af c1             	imul   eax,ecx
     a0f:	8b 4d f8             	mov    ecx,DWORD PTR [ebp-0x8]
     a12:	01 c8                	add    eax,ecx
     a14:	c1 e0 02             	shl    eax,0x2
     a17:	8b 4d 20             	mov    ecx,DWORD PTR [ebp+0x20]
     a1a:	01 c1                	add    ecx,eax
     a1c:	b8 00 00 00 00       	mov    eax,0x0
     a21:	89 01                	mov    DWORD PTR [ecx],eax
     a23:	b8 00 00 00 00       	mov    eax,0x0
     a28:	89 45 f4             	mov    DWORD PTR [ebp-0xc],eax
     a2b:	8b 45 f4             	mov    eax,DWORD PTR [ebp-0xc]
     a2e:	8b 4d 10             	mov    ecx,DWORD PTR [ebp+0x10]
     a31:	39 c8                	cmp    eax,ecx
     a33:	0f 8d 6a 00 00 00    	jge    0xaa3
     a39:	e9 0b 00 00 00       	jmp    0xa49
     a3e:	8b 45 f4             	mov    eax,DWORD PTR [ebp-0xc]
     a41:	89 c1                	mov    ecx,eax
     a43:	40                   	inc    eax
     a44:	89 45 f4             	mov    DWORD PTR [ebp-0xc],eax
     a47:	eb e2                	jmp    0xa2b
     a49:	8b 45 fc             	mov    eax,DWORD PTR [ebp-0x4]
     a4c:	8b 4d 1c             	mov    ecx,DWORD PTR [ebp+0x1c]
     a4f:	0f af c1             	imul   eax,ecx
     a52:	8b 4d f8             	mov    ecx,DWORD PTR [ebp-0x8]
     a55:	01 c8                	add    eax,ecx
     a57:	c1 e0 02             	shl    eax,0x2
     a5a:	8b 4d 20             	mov    ecx,DWORD PTR [ebp+0x20]
     a5d:	01 c1                	add    ecx,eax
     a5f:	8b 45 fc             	mov    eax,DWORD PTR [ebp-0x4]
     a62:	8b 55 10             	mov    edx,DWORD PTR [ebp+0x10]
     a65:	0f af c2             	imul   eax,edx
     a68:	8b 55 f4             	mov    edx,DWORD PTR [ebp-0xc]
     a6b:	01 d0                	add    eax,edx
     a6d:	c1 e0 02             	shl    eax,0x2
     a70:	8b 55 08             	mov    edx,DWORD PTR [ebp+0x8]
     a73:	01 c2                	add    edx,eax
     a75:	8b 45 f4             	mov    eax,DWORD PTR [ebp-0xc]
     a78:	89 4d f0             	mov    DWORD PTR [ebp-0x10],ecx
     a7b:	8b 4d 1c             	mov    ecx,DWORD PTR [ebp+0x1c]
     a7e:	0f af c1             	imul   eax,ecx
     a81:	8b 4d f8             	mov    ecx,DWORD PTR [ebp-0x8]
     a84:	01 c8                	add    eax,ecx
     a86:	c1 e0 02             	shl    eax,0x2
     a89:	8b 4d 14             	mov    ecx,DWORD PTR [ebp+0x14]
     a8c:	01 c1                	add    ecx,eax
     a8e:	8b 12                	mov    edx,DWORD PTR [edx]
     a90:	8b 09                	mov    ecx,DWORD PTR [ecx]
     a92:	0f af d1             	imul   edx,ecx
     a95:	8b 45 f0             	mov    eax,DWORD PTR [ebp-0x10]
     a98:	8b 00                	mov    eax,DWORD PTR [eax]
     a9a:	01 d0                	add    eax,edx
     a9c:	8b 4d f0             	mov    ecx,DWORD PTR [ebp-0x10]
     a9f:	89 01                	mov    DWORD PTR [ecx],eax
     aa1:	eb 9b                	jmp    0xa3e
     aa3:	e9 53 ff ff ff       	jmp    0x9fb
     aa8:	e9 28 ff ff ff       	jmp    0x9d5
     aad:	c9                   	leave
     aae:	c3                   	ret
     aaf:	55                   	push   ebp
     ab0:	89 e5                	mov    ebp,esp
     ab2:	81 ec 08 00 00 00    	sub    esp,0x8
     ab8:	b8 00 00 00 00       	mov    eax,0x0
     abd:	89 45 fc             	mov    DWORD PTR [ebp-0x4],eax
     ac0:	8b 45 fc             	mov    eax,DWORD PTR [ebp-0x4]
     ac3:	8b 4d 0c             	mov    ecx,DWORD PTR [ebp+0xc]
     ac6:	39 c8                	cmp    eax,ecx
     ac8:	0f 8d 85 00 00 00    	jge    0xb53
     ace:	e9 0b 00 00 00       	jmp    0xade
     ad3:	8b 45 fc             	mov    eax,DWORD PTR [ebp-0x4]
     ad6:	89 c1                	mov    ecx,eax
     ad8:	40                   	inc    eax
     ad9:	89 45 fc             	mov    DWORD PTR [ebp-0x4],eax
     adc:	eb e2                	jmp    0xac0
     ade:	b8 00 00 00 00       	mov    eax,0x0
     ae3:	89 45 f8             	mov    DWORD PTR [ebp-0x8],eax
     ae6:	8b 45 f8             	mov    eax,DWORD PTR [ebp-0x8]
     ae9:	8b 4d 10             	mov    ecx,DWORD PTR [ebp+0x10]
     aec:	39 c8                	cmp    eax,ecx
     aee:	0f 8d 4f 00 00 00    	jge    0xb43
     af4:	e9 0b 00 00 00       	jmp    0xb04
     af9:	8b 45 f8             	mov    eax,DWORD PTR [ebp-0x8]
     afc:	89 c1                	mov    ecx,eax
     afe:	40                   	inc    eax
     aff:	89 45 f8             	mov    DWORD PTR [ebp-0x8],eax
     b02:	eb e2                	jmp    0xae6
     b04:	b8 20 00 00 00       	mov    eax,0x20
     b09:	50                   	push   eax
     b0a:	e8 c0 f5 ff ff       	call   0xcf
     b0f:	83 c4 04             	add    esp,0x4
     b12:	8b 45 fc             	mov    eax,DWORD PTR [ebp-0x4]
     b15:	8b 4d 10             	mov    ecx,DWORD PTR [ebp+0x10]
     b18:	0f af c1             	imul   eax,ecx
     b1b:	8b 4d f8             	mov    ecx,DWORD PTR [ebp-0x8]
     b1e:	01 c8                	add    eax,ecx
     b20:	c1 e0 02             	shl    eax,0x2
     b23:	8b 4d 08             	mov    ecx,DWORD PTR [ebp+0x8]
     b26:	01 c1                	add    ecx,eax
     b28:	8b 09                	mov    ecx,DWORD PTR [ecx]
     b2a:	51                   	push   ecx
     b2b:	e8 cc f7 ff ff       	call   0x2fc
     b30:	83 c4 04             	add    esp,0x4
     b33:	b8 20 00 00 00       	mov    eax,0x20
     b38:	50                   	push   eax
     b39:	e8 91 f5 ff ff       	call   0xcf
     b3e:	83 c4 04             	add    esp,0x4
     b41:	eb b6                	jmp    0xaf9
     b43:	b8 0a 00 00 00       	mov    eax,0xa
     b48:	50                   	push   eax
     b49:	e8 81 f5 ff ff       	call   0xcf
     b4e:	83 c4 04             	add    esp,0x4
     b51:	eb 80                	jmp    0xad3
     b53:	c9                   	leave
     b54:	c3                   	ret
     b55:	55                   	push   ebp
     b56:	89 e5                	mov    ebp,esp
     b58:	81 ec a0 00 00 00    	sub    esp,0xa0
     b5e:	b8 30 00 00 00       	mov    eax,0x30
     b63:	50                   	push   eax
     b64:	b8 00 00 00 00       	mov    eax,0x0
     b69:	50                   	push   eax
     b6a:	8d 45 d0             	lea    eax,[ebp-0x30]
     b6d:	50                   	push   eax
     b6e:	e8 ae f4 ff ff       	call   0x21
     b73:	83 c4 0c             	add    esp,0xc
     b76:	b8 01 00 00 00       	mov    eax,0x1
     b7b:	89 45 d0             	mov    DWORD PTR [ebp-0x30],eax
     b7e:	b8 02 00 00 00       	mov    eax,0x2
     b83:	89 45 d4             	mov    DWORD PTR [ebp-0x2c],eax
     b86:	b8 03 00 00 00       	mov    eax,0x3
     b8b:	89 45 d8             	mov    DWORD PTR [ebp-0x28],eax
     b8e:	b8 04 00 00 00       	mov    eax,0x4
     b93:	89 45 dc             	mov    DWORD PTR [ebp-0x24],eax
     b96:	b8 05 00 00 00       	mov    eax,0x5
     b9b:	89 45 e0             	mov    DWORD PTR [ebp-0x20],eax
     b9e:	b8 06 00 00 00       	mov    eax,0x6
     ba3:	89 45 e4             	mov    DWORD PTR [ebp-0x1c],eax
     ba6:	b8 07 00 00 00       	mov    eax,0x7
     bab:	89 45 e8             	mov    DWORD PTR [ebp-0x18],eax
     bae:	b8 08 00 00 00       	mov    eax,0x8
     bb3:	89 45 ec             	mov    DWORD PTR [ebp-0x14],eax
     bb6:	b8 09 00 00 00       	mov    eax,0x9
     bbb:	89 45 f0             	mov    DWORD PTR [ebp-0x10],eax
     bbe:	b8 0a 00 00 00       	mov    eax,0xa
     bc3:	89 45 f4             	mov    DWORD PTR [ebp-0xc],eax
     bc6:	b8 0b 00 00 00       	mov    eax,0xb
     bcb:	89 45 f8             	mov    DWORD PTR [ebp-0x8],eax
     bce:	b8 0c 00 00 00       	mov    eax,0xc
     bd3:	89 45 fc             	mov    DWORD PTR [ebp-0x4],eax
     bd6:	b8 30 00 00 00       	mov    eax,0x30
     bdb:	50                   	push   eax
     bdc:	b8 00 00 00 00       	mov    eax,0x0
     be1:	50                   	push   eax
     be2:	8d 45 a0             	lea    eax,[ebp-0x60]
     be5:	50                   	push   eax
     be6:	e8 36 f4 ff ff       	call   0x21
     beb:	83 c4 0c             	add    esp,0xc
     bee:	b8 01 00 00 00       	mov    eax,0x1
     bf3:	89 45 a0             	mov    DWORD PTR [ebp-0x60],eax
     bf6:	b8 02 00 00 00       	mov    eax,0x2
     bfb:	89 45 a4             	mov    DWORD PTR [ebp-0x5c],eax
     bfe:	b8 03 00 00 00       	mov    eax,0x3
     c03:	89 45 a8             	mov    DWORD PTR [ebp-0x58],eax
     c06:	b8 04 00 00 00       	mov    eax,0x4
     c0b:	89 45 ac             	mov    DWORD PTR [ebp-0x54],eax
     c0e:	b8 05 00 00 00       	mov    eax,0x5
     c13:	89 45 b0             	mov    DWORD PTR [ebp-0x50],eax
     c16:	b8 06 00 00 00       	mov    eax,0x6
     c1b:	89 45 b4             	mov    DWORD PTR [ebp-0x4c],eax
     c1e:	b8 07 00 00 00       	mov    eax,0x7
     c23:	89 45 b8             	mov    DWORD PTR [ebp-0x48],eax
     c26:	b8 08 00 00 00       	mov    eax,0x8
     c2b:	89 45 bc             	mov    DWORD PTR [ebp-0x44],eax
     c2e:	b8 09 00 00 00       	mov    eax,0x9
     c33:	89 45 c0             	mov    DWORD PTR [ebp-0x40],eax
     c36:	b8 0a 00 00 00       	mov    eax,0xa
     c3b:	89 45 c4             	mov    DWORD PTR [ebp-0x3c],eax
     c3e:	b8 0b 00 00 00       	mov    eax,0xb
     c43:	89 45 c8             	mov    DWORD PTR [ebp-0x38],eax
     c46:	b8 0c 00 00 00       	mov    eax,0xc
     c4b:	89 45 cc             	mov    DWORD PTR [ebp-0x34],eax
     c4e:	e9 00 00 00 00       	jmp    0xc53
     c53:	b8 a3 a2 04 08       	mov    eax,0x804a2a3
     c58:	50                   	push   eax
     c59:	e8 87 f4 ff ff       	call   0xe5
     c5e:	83 c4 04             	add    esp,0x4
     c61:	b8 03 00 00 00       	mov    eax,0x3
     c66:	50                   	push   eax
     c67:	b8 04 00 00 00       	mov    eax,0x4
     c6c:	50                   	push   eax
     c6d:	8d 45 d0             	lea    eax,[ebp-0x30]
     c70:	50                   	push   eax
     c71:	e8 39 fe ff ff       	call   0xaaf
     c76:	83 c4 0c             	add    esp,0xc
     c79:	b8 af a2 04 08       	mov    eax,0x804a2af
     c7e:	50                   	push   eax
     c7f:	e8 61 f4 ff ff       	call   0xe5
     c84:	83 c4 04             	add    esp,0x4
     c87:	b8 04 00 00 00       	mov    eax,0x4
     c8c:	50                   	push   eax
     c8d:	b8 03 00 00 00       	mov    eax,0x3
     c92:	50                   	push   eax
     c93:	8d 45 a0             	lea    eax,[ebp-0x60]
     c96:	50                   	push   eax
     c97:	e8 13 fe ff ff       	call   0xaaf
     c9c:	83 c4 0c             	add    esp,0xc
     c9f:	8d 85 60 ff ff ff    	lea    eax,[ebp-0xa0]
     ca5:	50                   	push   eax
     ca6:	b8 04 00 00 00       	mov    eax,0x4
     cab:	50                   	push   eax
     cac:	b8 03 00 00 00       	mov    eax,0x3
     cb1:	50                   	push   eax
     cb2:	8d 45 a0             	lea    eax,[ebp-0x60]
     cb5:	50                   	push   eax
     cb6:	b8 03 00 00 00       	mov    eax,0x3
     cbb:	50                   	push   eax
     cbc:	b8 04 00 00 00       	mov    eax,0x4
     cc1:	50                   	push   eax
     cc2:	8d 45 d0             	lea    eax,[ebp-0x30]
     cc5:	50                   	push   eax
     cc6:	e8 e6 fc ff ff       	call   0x9b1
     ccb:	83 c4 1c             	add    esp,0x1c
     cce:	b8 bb a2 04 08       	mov    eax,0x804a2bb
     cd3:	50                   	push   eax
     cd4:	e8 0c f4 ff ff       	call   0xe5
     cd9:	83 c4 04             	add    esp,0x4
     cdc:	b8 04 00 00 00       	mov    eax,0x4
     ce1:	50                   	push   eax
     ce2:	b8 04 00 00 00       	mov    eax,0x4
     ce7:	50                   	push   eax
     ce8:	8d 85 60 ff ff ff    	lea    eax,[ebp-0xa0]
     cee:	50                   	push   eax
     cef:	e8 bb fd ff ff       	call   0xaaf
     cf4:	83 c4 0c             	add    esp,0xc
     cf7:	b8 00 00 00 00       	mov    eax,0x0
     cfc:	c9                   	leave
     cfd:	c3                   	ret
     cfe:	55                   	push   ebp
     cff:	89 e5                	mov    ebp,esp
     d01:	81 ec 04 00 00 00    	sub    esp,0x4
     d07:	b8 5b 00 00 00       	mov    eax,0x5b
     d0c:	50                   	push   eax
     d0d:	e8 bd f3 ff ff       	call   0xcf
     d12:	83 c4 04             	add    esp,0x4
     d15:	b8 00 00 00 00       	mov    eax,0x0
     d1a:	89 45 fc             	mov    DWORD PTR [ebp-0x4],eax
     d1d:	8b 45 fc             	mov    eax,DWORD PTR [ebp-0x4]
     d20:	8b 4d 0c             	mov    ecx,DWORD PTR [ebp+0xc]
     d23:	39 c8                	cmp    eax,ecx
     d25:	0f 83 53 00 00 00    	jae    0xd7e
     d2b:	e9 0b 00 00 00       	jmp    0xd3b
     d30:	8b 45 fc             	mov    eax,DWORD PTR [ebp-0x4]
     d33:	89 c1                	mov    ecx,eax
     d35:	40                   	inc    eax
     d36:	89 45 fc             	mov    DWORD PTR [ebp-0x4],eax
     d39:	eb e2                	jmp    0xd1d
     d3b:	8b 45 fc             	mov    eax,DWORD PTR [ebp-0x4]
     d3e:	c1 e0 02             	shl    eax,0x2
     d41:	8b 4d 08             	mov    ecx,DWORD PTR [ebp+0x8]
     d44:	01 c1                	add    ecx,eax
     d46:	8b 09                	mov    ecx,DWORD PTR [ecx]
     d48:	51                   	push   ecx
     d49:	e8 ae f5 ff ff       	call   0x2fc
     d4e:	83 c4 04             	add    esp,0x4
     d51:	8b 45 0c             	mov    eax,DWORD PTR [ebp+0xc]
     d54:	48                   	dec    eax
     d55:	8b 4d fc             	mov    ecx,DWORD PTR [ebp-0x4]
     d58:	39 c1                	cmp    ecx,eax
     d5a:	0f 83 1c 00 00 00    	jae    0xd7c
     d60:	b8 2c 00 00 00       	mov    eax,0x2c
     d65:	50                   	push   eax
     d66:	e8 64 f3 ff ff       	call   0xcf
     d6b:	83 c4 04             	add    esp,0x4
     d6e:	b8 20 00 00 00       	mov    eax,0x20
     d73:	50                   	push   eax
     d74:	e8 56 f3 ff ff       	call   0xcf
     d79:	83 c4 04             	add    esp,0x4
     d7c:	eb b2                	jmp    0xd30
     d7e:	b8 5d 00 00 00       	mov    eax,0x5d
     d83:	50                   	push   eax
     d84:	e8 46 f3 ff ff       	call   0xcf
     d89:	83 c4 04             	add    esp,0x4
     d8c:	c9                   	leave
     d8d:	c3                   	ret
     d8e:	55                   	push   ebp
     d8f:	89 e5                	mov    ebp,esp
     d91:	81 ec 0c 00 00 00    	sub    esp,0xc
     d97:	b8 cd a2 04 08       	mov    eax,0x804a2cd
     d9c:	50                   	push   eax
     d9d:	e8 43 f3 ff ff       	call   0xe5
     da2:	83 c4 04             	add    esp,0x4
     da5:	b8 03 00 00 00       	mov    eax,0x3
     daa:	50                   	push   eax
     dab:	b8 10 b0 04 08       	mov    eax,0x804b010
     db0:	50                   	push   eax
     db1:	e8 48 ff ff ff       	call   0xcfe
     db6:	83 c4 08             	add    esp,0x8
     db9:	b8 df a2 04 08       	mov    eax,0x804a2df
     dbe:	50                   	push   eax
     dbf:	e8 21 f3 ff ff       	call   0xe5
     dc4:	83 c4 04             	add    esp,0x4
     dc7:	b8 03 00 00 00       	mov    eax,0x3
     dcc:	50                   	push   eax
     dcd:	b8 1c b0 04 08       	mov    eax,0x804b01c
     dd2:	50                   	push   eax
     dd3:	e8 26 ff ff ff       	call   0xcfe
     dd8:	83 c4 08             	add    esp,0x8
     ddb:	b8 f2 a2 04 08       	mov    eax,0x804a2f2
     de0:	50                   	push   eax
     de1:	e8 ff f2 ff ff       	call   0xe5
     de6:	83 c4 04             	add    esp,0x4
     de9:	b8 0c 00 00 00       	mov    eax,0xc
     dee:	50                   	push   eax
     def:	b8 1c b0 04 08       	mov    eax,0x804b01c
     df4:	50                   	push   eax
     df5:	b8 10 b0 04 08       	mov    eax,0x804b010
     dfa:	50                   	push   eax
     dfb:	e8 70 f2 ff ff       	call   0x70
     e00:	83 c4 0c             	add    esp,0xc
     e03:	b8 33 a3 04 08       	mov    eax,0x804a333
     e08:	50                   	push   eax
     e09:	e8 d7 f2 ff ff       	call   0xe5
     e0e:	83 c4 04             	add    esp,0x4
     e11:	b8 03 00 00 00       	mov    eax,0x3
     e16:	50                   	push   eax
     e17:	b8 10 b0 04 08       	mov    eax,0x804b010
     e1c:	50                   	push   eax
     e1d:	e8 dc fe ff ff       	call   0xcfe
     e22:	83 c4 08             	add    esp,0x8
     e25:	b8 54 a3 04 08       	mov    eax,0x804a354
     e2a:	50                   	push   eax
     e2b:	e8 b5 f2 ff ff       	call   0xe5
     e30:	83 c4 04             	add    esp,0x4
     e33:	b8 03 00 00 00       	mov    eax,0x3
     e38:	50                   	push   eax
     e39:	b8 28 b0 04 08       	mov    eax,0x804b028
     e3e:	50                   	push   eax
     e3f:	e8 ba fe ff ff       	call   0xcfe
     e44:	83 c4 08             	add    esp,0x8
     e47:	b8 90 a3 04 08       	mov    eax,0x804a390
     e4c:	50                   	push   eax
     e4d:	e8 93 f2 ff ff       	call   0xe5
     e52:	83 c4 04             	add    esp,0x4
     e55:	b8 03 00 00 00       	mov    eax,0x3
     e5a:	50                   	push   eax
     e5b:	8d 45 f4             	lea    eax,[ebp-0xc]
     e5e:	50                   	push   eax
     e5f:	e8 9a fe ff ff       	call   0xcfe
     e64:	83 c4 08             	add    esp,0x8
     e67:	b8 e0 a3 04 08       	mov    eax,0x804a3e0
     e6c:	50                   	push   eax
     e6d:	e8 73 f2 ff ff       	call   0xe5
     e72:	83 c4 04             	add    esp,0x4
     e75:	b8 0c 00 00 00       	mov    eax,0xc
     e7a:	50                   	push   eax
     e7b:	b8 16 00 00 00       	mov    eax,0x16
     e80:	50                   	push   eax
     e81:	8d 45 f4             	lea    eax,[ebp-0xc]
     e84:	50                   	push   eax
     e85:	e8 97 f1 ff ff       	call   0x21
     e8a:	83 c4 0c             	add    esp,0xc
     e8d:	b8 03 00 00 00       	mov    eax,0x3
     e92:	50                   	push   eax
     e93:	8d 45 f4             	lea    eax,[ebp-0xc]
     e96:	50                   	push   eax
     e97:	e8 62 fe ff ff       	call   0xcfe
     e9c:	83 c4 08             	add    esp,0x8
     e9f:	c9                   	leave
     ea0:	c3                   	ret
     ea1:	55                   	push   ebp
     ea2:	89 e5                	mov    ebp,esp
     ea4:	81 ec 1c 00 00 00    	sub    esp,0x1c
     eaa:	b8 28 00 00 00       	mov    eax,0x28
     eaf:	89 45 fc             	mov    DWORD PTR [ebp-0x4],eax
     eb2:	b8 0a 00 00 00       	mov    eax,0xa
     eb7:	50                   	push   eax
     eb8:	e8 12 f2 ff ff       	call   0xcf
     ebd:	83 c4 04             	add    esp,0x4
     ec0:	8b 45 fc             	mov    eax,DWORD PTR [ebp-0x4]
     ec3:	89 c1                	mov    ecx,eax
     ec5:	48                   	dec    eax
     ec6:	89 45 fc             	mov    DWORD PTR [ebp-0x4],eax
     ec9:	83 f9 00             	cmp    ecx,0x0
     ecc:	0f 84 10 00 00 00    	je     0xee2
     ed2:	b8 2d 00 00 00       	mov    eax,0x2d
     ed7:	50                   	push   eax
     ed8:	e8 f2 f1 ff ff       	call   0xcf
     edd:	83 c4 04             	add    esp,0x4
     ee0:	eb de                	jmp    0xec0
     ee2:	b8 0a 00 00 00       	mov    eax,0xa
     ee7:	50                   	push   eax
     ee8:	e8 e2 f1 ff ff       	call   0xcf
     eed:	83 c4 04             	add    esp,0x4
     ef0:	b8 17 a4 04 08       	mov    eax,0x804a417
     ef5:	50                   	push   eax
     ef6:	e8 ea f1 ff ff       	call   0xe5
     efb:	83 c4 04             	add    esp,0x4
     efe:	b8 0a 00 00 00       	mov    eax,0xa
     f03:	50                   	push   eax
     f04:	e8 c6 f1 ff ff       	call   0xcf
     f09:	83 c4 04             	add    esp,0x4
     f0c:	e8 bc f8 ff ff       	call   0x7cd
     f11:	b8 28 00 00 00       	mov    eax,0x28
     f16:	89 45 f8             	mov    DWORD PTR [ebp-0x8],eax
     f19:	b8 0a 00 00 00       	mov    eax,0xa
     f1e:	50                   	push   eax
     f1f:	e8 ab f1 ff ff       	call   0xcf
     f24:	83 c4 04             	add    esp,0x4
     f27:	8b 45 f8             	mov    eax,DWORD PTR [ebp-0x8]
     f2a:	89 c1                	mov    ecx,eax
     f2c:	48                   	dec    eax
     f2d:	89 45 f8             	mov    DWORD PTR [ebp-0x8],eax
     f30:	83 f9 00             	cmp    ecx,0x0
     f33:	0f 84 10 00 00 00    	je     0xf49
     f39:	b8 2d 00 00 00       	mov    eax,0x2d
     f3e:	50                   	push   eax
     f3f:	e8 8b f1 ff ff       	call   0xcf
     f44:	83 c4 04             	add    esp,0x4
     f47:	eb de                	jmp    0xf27
     f49:	b8 0a 00 00 00       	mov    eax,0xa
     f4e:	50                   	push   eax
     f4f:	e8 7b f1 ff ff       	call   0xcf
     f54:	83 c4 04             	add    esp,0x4
     f57:	b8 30 a4 04 08       	mov    eax,0x804a430
     f5c:	50                   	push   eax
     f5d:	e8 83 f1 ff ff       	call   0xe5
     f62:	83 c4 04             	add    esp,0x4
     f65:	b8 0a 00 00 00       	mov    eax,0xa
     f6a:	50                   	push   eax
     f6b:	e8 5f f1 ff ff       	call   0xcf
     f70:	83 c4 04             	add    esp,0x4
     f73:	e8 cf f6 ff ff       	call   0x647
     f78:	b8 28 00 00 00       	mov    eax,0x28
     f7d:	89 45 f4             	mov    DWORD PTR [ebp-0xc],eax
     f80:	b8 0a 00 00 00       	mov    eax,0xa
     f85:	50                   	push   eax
     f86:	e8 44 f1 ff ff       	call   0xcf
     f8b:	83 c4 04             	add    esp,0x4
     f8e:	8b 45 f4             	mov    eax,DWORD PTR [ebp-0xc]
     f91:	89 c1                	mov    ecx,eax
     f93:	48                   	dec    eax
     f94:	89 45 f4             	mov    DWORD PTR [ebp-0xc],eax
     f97:	83 f9 00             	cmp    ecx,0x0
     f9a:	0f 84 10 00 00 00    	je     0xfb0
     fa0:	b8 2d 00 00 00       	mov    eax,0x2d
     fa5:	50                   	push   eax
     fa6:	e8 24 f1 ff ff       	call   0xcf
     fab:	83 c4 04             	add    esp,0x4
     fae:	eb de                	jmp    0xf8e
     fb0:	b8 0a 00 00 00       	mov    eax,0xa
     fb5:	50                   	push   eax
     fb6:	e8 14 f1 ff ff       	call   0xcf
     fbb:	83 c4 04             	add    esp,0x4
     fbe:	b8 44 a4 04 08       	mov    eax,0x804a444
     fc3:	50                   	push   eax
     fc4:	e8 1c f1 ff ff       	call   0xe5
     fc9:	83 c4 04             	add    esp,0x4
     fcc:	b8 0a 00 00 00       	mov    eax,0xa
     fd1:	50                   	push   eax
     fd2:	e8 f8 f0 ff ff       	call   0xcf
     fd7:	83 c4 04             	add    esp,0x4
     fda:	e8 fe f3 ff ff       	call   0x3dd
     fdf:	b8 28 00 00 00       	mov    eax,0x28
     fe4:	89 45 f0             	mov    DWORD PTR [ebp-0x10],eax
     fe7:	b8 0a 00 00 00       	mov    eax,0xa
     fec:	50                   	push   eax
     fed:	e8 dd f0 ff ff       	call   0xcf
     ff2:	83 c4 04             	add    esp,0x4
     ff5:	8b 45 f0             	mov    eax,DWORD PTR [ebp-0x10]
     ff8:	89 c1                	mov    ecx,eax
     ffa:	48                   	dec    eax
     ffb:	89 45 f0             	mov    DWORD PTR [ebp-0x10],eax
     ffe:	83 f9 00             	cmp    ecx,0x0
    1001:	0f 84 10 00 00 00    	je     0x1017
    1007:	b8 2d 00 00 00       	mov    eax,0x2d
    100c:	50                   	push   eax
    100d:	e8 bd f0 ff ff       	call   0xcf
    1012:	83 c4 04             	add    esp,0x4
    1015:	eb de                	jmp    0xff5
    1017:	b8 0a 00 00 00       	mov    eax,0xa
    101c:	50                   	push   eax
    101d:	e8 ad f0 ff ff       	call   0xcf
    1022:	83 c4 04             	add    esp,0x4
    1025:	b8 5d a4 04 08       	mov    eax,0x804a45d
    102a:	50                   	push   eax
    102b:	e8 b5 f0 ff ff       	call   0xe5
    1030:	83 c4 04             	add    esp,0x4
    1033:	b8 0a 00 00 00       	mov    eax,0xa
    1038:	50                   	push   eax
    1039:	e8 91 f0 ff ff       	call   0xcf
    103e:	83 c4 04             	add    esp,0x4
    1041:	e8 0f fb ff ff       	call   0xb55
    1046:	b8 28 00 00 00       	mov    eax,0x28
    104b:	89 45 ec             	mov    DWORD PTR [ebp-0x14],eax
    104e:	b8 0a 00 00 00       	mov    eax,0xa
    1053:	50                   	push   eax
    1054:	e8 76 f0 ff ff       	call   0xcf
    1059:	83 c4 04             	add    esp,0x4
    105c:	8b 45 ec             	mov    eax,DWORD PTR [ebp-0x14]
    105f:	89 c1                	mov    ecx,eax
    1061:	48                   	dec    eax
    1062:	89 45 ec             	mov    DWORD PTR [ebp-0x14],eax
    1065:	83 f9 00             	cmp    ecx,0x0
    1068:	0f 84 10 00 00 00    	je     0x107e
    106e:	b8 2d 00 00 00       	mov    eax,0x2d
    1073:	50                   	push   eax
    1074:	e8 56 f0 ff ff       	call   0xcf
    1079:	83 c4 04             	add    esp,0x4
    107c:	eb de                	jmp    0x105c
    107e:	b8 0a 00 00 00       	mov    eax,0xa
    1083:	50                   	push   eax
    1084:	e8 46 f0 ff ff       	call   0xcf
    1089:	83 c4 04             	add    esp,0x4
    108c:	b8 75 a4 04 08       	mov    eax,0x804a475
    1091:	50                   	push   eax
    1092:	e8 4e f0 ff ff       	call   0xe5
    1097:	83 c4 04             	add    esp,0x4
    109a:	b8 0a 00 00 00       	mov    eax,0xa
    109f:	50                   	push   eax
    10a0:	e8 2a f0 ff ff       	call   0xcf
    10a5:	83 c4 04             	add    esp,0x4
    10a8:	e8 e1 fc ff ff       	call   0xd8e
    10ad:	b8 28 00 00 00       	mov    eax,0x28
    10b2:	89 45 e8             	mov    DWORD PTR [ebp-0x18],eax
    10b5:	b8 0a 00 00 00       	mov    eax,0xa
    10ba:	50                   	push   eax
    10bb:	e8 0f f0 ff ff       	call   0xcf
    10c0:	83 c4 04             	add    esp,0x4
    10c3:	8b 45 e8             	mov    eax,DWORD PTR [ebp-0x18]
    10c6:	89 c1                	mov    ecx,eax
    10c8:	48                   	dec    eax
    10c9:	89 45 e8             	mov    DWORD PTR [ebp-0x18],eax
    10cc:	83 f9 00             	cmp    ecx,0x0
    10cf:	0f 84 10 00 00 00    	je     0x10e5
    10d5:	b8 2d 00 00 00       	mov    eax,0x2d
    10da:	50                   	push   eax
    10db:	e8 ef ef ff ff       	call   0xcf
    10e0:	83 c4 04             	add    esp,0x4
    10e3:	eb de                	jmp    0x10c3
    10e5:	b8 0a 00 00 00       	mov    eax,0xa
    10ea:	50                   	push   eax
    10eb:	e8 df ef ff ff       	call   0xcf
    10f0:	83 c4 04             	add    esp,0x4
    10f3:	b8 88 a4 04 08       	mov    eax,0x804a488
    10f8:	50                   	push   eax
    10f9:	e8 e7 ef ff ff       	call   0xe5
    10fe:	83 c4 04             	add    esp,0x4
    1101:	b8 0a 00 00 00       	mov    eax,0xa
    1106:	50                   	push   eax
    1107:	e8 c3 ef ff ff       	call   0xcf
    110c:	83 c4 04             	add    esp,0x4
    110f:	e8 54 f8 ff ff       	call   0x968
    1114:	b8 28 00 00 00       	mov    eax,0x28
    1119:	89 45 e4             	mov    DWORD PTR [ebp-0x1c],eax
    111c:	b8 0a 00 00 00       	mov    eax,0xa
    1121:	50                   	push   eax
    1122:	e8 a8 ef ff ff       	call   0xcf
    1127:	83 c4 04             	add    esp,0x4
    112a:	8b 45 e4             	mov    eax,DWORD PTR [ebp-0x1c]
    112d:	89 c1                	mov    ecx,eax
    112f:	48                   	dec    eax
    1130:	89 45 e4             	mov    DWORD PTR [ebp-0x1c],eax
    1133:	83 f9 00             	cmp    ecx,0x0
    1136:	0f 84 10 00 00 00    	je     0x114c
    113c:	b8 2d 00 00 00       	mov    eax,0x2d
    1141:	50                   	push   eax
    1142:	e8 88 ef ff ff       	call   0xcf
    1147:	83 c4 04             	add    esp,0x4
    114a:	eb de                	jmp    0x112a
    114c:	b8 0a 00 00 00       	mov    eax,0xa
    1151:	50                   	push   eax
    1152:	e8 78 ef ff ff       	call   0xcf
    1157:	83 c4 04             	add    esp,0x4
    115a:	b8 a4 a4 04 08       	mov    eax,0x804a4a4
    115f:	50                   	push   eax
    1160:	e8 80 ef ff ff       	call   0xe5
    1165:	83 c4 04             	add    esp,0x4
    1168:	b8 0a 00 00 00       	mov    eax,0xa
    116d:	50                   	push   eax
    116e:	e8 5c ef ff ff       	call   0xcf
    1173:	83 c4 04             	add    esp,0x4
    1176:	e8 09 f7 ff ff       	call   0x884
    117b:	b8 45 00 00 00       	mov    eax,0x45
    1180:	c9                   	leave
    1181:	c3                   	ret
	...
    1ffe:	00 00                	add    BYTE PTR [eax],al
    2000:	0a 73 74             	or     dh,BYTE PTR [ebx+0x74]
    2003:	72 75                	jb     0x207a
    2005:	63 74 73 3a          	arpl   WORD PTR [ebx+esi*2+0x3a],si
    2009:	20 0a                	and    BYTE PTR [edx],cl
    200b:	00 09                	add    BYTE PTR [ecx],cl
    200d:	20 20                	and    BYTE PTR [eax],ah
    200f:	20 76 31             	and    BYTE PTR [esi+0x31],dh
    2012:	2e 78 20             	cs js  0x2035
    2015:	3d 20 00 76 31       	cmp    eax,0x31760020
    201a:	2e 79 20             	cs jns 0x203d
    201d:	3d 20 00 09 20       	cmp    eax,0x20090020
    2022:	20 20                	and    BYTE PTR [eax],ah
    2024:	76 32                	jbe    0x2058
    2026:	2e 78 20             	cs js  0x2049
    2029:	3d 20 00 76 32       	cmp    eax,0x32760020
    202e:	2e 79 20             	cs jns 0x2051
    2031:	3d 20 00 0a 64       	cmp    eax,0x640a0020
    2036:	6f                   	outs   dx,DWORD PTR ds:[esi]
    2037:	74 3a                	je     0x2073
    2039:	0a 09                	or     cl,BYTE PTR [ecx]
    203b:	09 76 31             	or     DWORD PTR [esi+0x31],esi
    203e:	2a 76 32             	sub    dh,BYTE PTR [esi+0x32]
    2041:	20 3d 20 20 00 62    	and    BYTE PTR ds:0x62002020,bh
    2047:	65 66 6f             	outs   dx,WORD PTR gs:[esi]
    204a:	72 65                	jb     0x20b1
    204c:	20 73 6f             	and    BYTE PTR [ebx+0x6f],dh
    204f:	72 74                	jb     0x20c5
    2051:	3a 0a                	cmp    cl,BYTE PTR [edx]
    2053:	09 00                	or     DWORD PTR [eax],eax
    2055:	20 61 66             	and    BYTE PTR [ecx+0x66],ah
    2058:	74 65                	je     0x20bf
    205a:	72 20                	jb     0x207c
    205c:	73 6f                	jae    0x20cd
    205e:	72 74                	jb     0x20d4
    2060:	3a 0a                	cmp    cl,BYTE PTR [edx]
    2062:	09 00                	or     DWORD PTR [eax],eax
    2064:	20 20                	and    BYTE PTR [eax],ah
    2066:	66 69 62 6f 6e 6e    	imul   sp,WORD PTR [edx+0x6f],0x6e6e
    206c:	61                   	popa
    206d:	63 69 20             	arpl   WORD PTR [ecx+0x20],bp
    2070:	00 76 61             	add    BYTE PTR [esi+0x61],dh
    2073:	6c                   	ins    BYTE PTR es:[edi],dx
    2074:	75 65                	jne    0x20db
    2076:	20 62 65             	and    BYTE PTR [edx+0x65],ah
    2079:	66 6f                	outs   dx,WORD PTR ds:[esi]
    207b:	72 65                	jb     0x20e2
    207d:	20 72 75             	and    BYTE PTR [edx+0x75],dh
    2080:	6e                   	outs   dx,BYTE PTR ds:[esi]
    2081:	74 69                	je     0x20ec
    2083:	6d                   	ins    DWORD PTR es:[edi],dx
    2084:	65 20 6d 61          	and    BYTE PTR gs:[ebp+0x61],ch
    2088:	63 68 69             	arpl   WORD PTR [eax+0x69],bp
    208b:	6e                   	outs   dx,BYTE PTR ds:[esi]
    208c:	65 20 63 6f          	and    BYTE PTR gs:[ebx+0x6f],ah
    2090:	64 65 20 65 78       	fs and BYTE PTR gs:[ebp+0x78],ah
    2095:	65 63 75 74          	arpl   WORD PTR gs:[ebp+0x74],si
    2099:	69 6f 6e 00 20 0a 6e 	imul   ebp,DWORD PTR [edi+0x6e],0x6e0a2000
    20a0:	75 6d                	jne    0x210f
    20a2:	20 3d 20 00 0a 76    	and    BYTE PTR ds:0x760a0020,bh
    20a8:	61                   	popa
    20a9:	6c                   	ins    BYTE PTR es:[edi],dx
    20aa:	75 65                	jne    0x2111
    20ac:	20 6f 66             	and    BYTE PTR [edi+0x66],ch
    20af:	20 27                	and    BYTE PTR [edi],ah
    20b1:	6e                   	outs   dx,BYTE PTR ds:[esi]
    20b2:	75 6d                	jne    0x2121
    20b4:	27                   	daa
    20b5:	20 61 66             	and    BYTE PTR [ecx+0x66],ah
    20b8:	74 65                	je     0x211f
    20ba:	72 20                	jb     0x20dc
    20bc:	6a 69                	push   0x69
    20be:	74 20                	je     0x20e0
    20c0:	00 20                	add    BYTE PTR [eax],ah
    20c2:	0a 6e 75             	or     ch,BYTE PTR [esi+0x75]
    20c5:	6d                   	ins    DWORD PTR es:[edi],dx
    20c6:	20 3d 20 00 68 65    	and    BYTE PTR ds:0x65680020,bh
    20cc:	6c                   	ins    BYTE PTR es:[edi],dx
    20cd:	6c                   	ins    BYTE PTR es:[edi],dx
    20ce:	6f                   	outs   dx,DWORD PTR ds:[esi]
    20cf:	20 49 27             	and    BYTE PTR [ecx+0x27],cl
    20d2:	6d                   	ins    DWORD PTR es:[edi],dx
    20d3:	20 64 6f 67          	and    BYTE PTR [edi+ebp*2+0x67],ah
    20d7:	67 6f                	outs   dx,DWORD PTR ds:[si]
    20d9:	20 20                	and    BYTE PTR [eax],ah
    20db:	20 20                	and    BYTE PTR [eax],ah
    20dd:	20 20                	and    BYTE PTR [eax],ah
    20df:	20 20                	and    BYTE PTR [eax],ah
    20e1:	20 0a                	and    BYTE PTR [edx],cl
    20e3:	20 20                	and    BYTE PTR [eax],ah
    20e5:	20 20                	and    BYTE PTR [eax],ah
    20e7:	20 20                	and    BYTE PTR [eax],ah
    20e9:	20 20                	and    BYTE PTR [eax],ah
    20eb:	20 20                	and    BYTE PTR [eax],ah
    20ed:	20 20                	and    BYTE PTR [eax],ah
    20ef:	20 20                	and    BYTE PTR [eax],ah
    20f1:	2f                   	das
    20f2:	29 2d 5f 2d 28 5c    	sub    DWORD PTR ds:0x5c282d5f,ebp
    20f8:	20 20                	and    BYTE PTR [eax],ah
    20fa:	0a 20                	or     ah,BYTE PTR [eax]
    20fc:	20 20                	and    BYTE PTR [eax],ah
    20fe:	20 20                	and    BYTE PTR [eax],ah
    2100:	20 20                	and    BYTE PTR [eax],ah
    2102:	20 20                	and    BYTE PTR [eax],ah
    2104:	20 20                	and    BYTE PTR [eax],ah
    2106:	20 20                	and    BYTE PTR [eax],ah
    2108:	20 20                	and    BYTE PTR [eax],ah
    210a:	28 6f 20             	sub    BYTE PTR [edi+0x20],ch
    210d:	6f                   	outs   dx,DWORD PTR ds:[esi]
    210e:	29 20                	sub    DWORD PTR [eax],esp
    2110:	20 20                	and    BYTE PTR [eax],ah
    2112:	20 0a                	and    BYTE PTR [edx],cl
    2114:	20 20                	and    BYTE PTR [eax],ah
    2116:	20 20                	and    BYTE PTR [eax],ah
    2118:	20 20                	and    BYTE PTR [eax],ah
    211a:	20 2e                	and    BYTE PTR [esi],ch
    211c:	2d 2d 2d 2d 2d       	sub    eax,0x2d2d2d2d
    2121:	5f                   	pop    edi
    2122:	5f                   	pop    edi
    2123:	2f                   	das
    2124:	5c                   	pop    esp
    2125:	6f                   	outs   dx,DWORD PTR ds:[esi]
    2126:	2f                   	das
    2127:	20 20                	and    BYTE PTR [eax],ah
    2129:	20 20                	and    BYTE PTR [eax],ah
    212b:	0a 20                	or     ah,BYTE PTR [eax]
    212d:	20 20                	and    BYTE PTR [eax],ah
    212f:	20 20                	and    BYTE PTR [eax],ah
    2131:	20 2f                	and    BYTE PTR [edi],ch
    2133:	20 20                	and    BYTE PTR [eax],ah
    2135:	5f                   	pop    edi
    2136:	5f                   	pop    edi
    2137:	20 20                	and    BYTE PTR [eax],ah
    2139:	20 20                	and    BYTE PTR [eax],ah
    213b:	20 20                	and    BYTE PTR [eax],ah
    213d:	2f                   	das
    213e:	20 20                	and    BYTE PTR [eax],ah
    2140:	20 20                	and    BYTE PTR [eax],ah
    2142:	20 20                	and    BYTE PTR [eax],ah
    2144:	0a 20                	or     ah,BYTE PTR [eax]
    2146:	20 5c 5f 5f          	and    BYTE PTR [edi+ebx*2+0x5f],bl
    214a:	2f                   	das
    214b:	5c                   	pop    esp
    214c:	20 2f                	and    BYTE PTR [edi],ch
    214e:	20 20                	and    BYTE PTR [eax],ah
    2150:	5c                   	pop    esp
    2151:	5f                   	pop    edi
    2152:	5c                   	pop    esp
    2153:	20 7c 2f 20          	and    BYTE PTR [edi+ebp*1+0x20],bh
    2157:	20 20                	and    BYTE PTR [eax],ah
    2159:	0a 20                	or     ah,BYTE PTR [eax]
    215b:	20 20                	and    BYTE PTR [eax],ah
    215d:	20 20                	and    BYTE PTR [eax],ah
    215f:	20 20                	and    BYTE PTR [eax],ah
    2161:	5c                   	pop    esp
    2162:	5c                   	pop    esp
    2163:	20 20                	and    BYTE PTR [eax],ah
    2165:	20 20                	and    BYTE PTR [eax],ah
    2167:	20 7c 7c 20          	and    BYTE PTR [esp+edi*2+0x20],bh
    216b:	20 20                	and    BYTE PTR [eax],ah
    216d:	20 20                	and    BYTE PTR [eax],ah
    216f:	20 0a                	and    BYTE PTR [edx],cl
    2171:	20 20                	and    BYTE PTR [eax],ah
    2173:	20 20                	and    BYTE PTR [eax],ah
    2175:	20 20                	and    BYTE PTR [eax],ah
    2177:	20 2f                	and    BYTE PTR [edi],ch
    2179:	2f                   	das
    217a:	20 20                	and    BYTE PTR [eax],ah
    217c:	20 20                	and    BYTE PTR [eax],ah
    217e:	20 7c 7c 20          	and    BYTE PTR [esp+edi*2+0x20],bh
    2182:	20 20                	and    BYTE PTR [eax],ah
    2184:	20 20                	and    BYTE PTR [eax],ah
    2186:	20 20                	and    BYTE PTR [eax],ah
    2188:	20 0a                	and    BYTE PTR [edx],cl
    218a:	20 20                	and    BYTE PTR [eax],ah
    218c:	20 20                	and    BYTE PTR [eax],ah
    218e:	20 20                	and    BYTE PTR [eax],ah
    2190:	20 7c 5c 20          	and    BYTE PTR [esp+ebx*2+0x20],bh
    2194:	20 20                	and    BYTE PTR [eax],ah
    2196:	20 20                	and    BYTE PTR [eax],ah
    2198:	7c 5c                	jl     0x21f6
    219a:	20 20                	and    BYTE PTR [eax],ah
    219c:	20 20                	and    BYTE PTR [eax],ah
    219e:	20 20                	and    BYTE PTR [eax],ah
    21a0:	0a 00                	or     al,BYTE PTR [eax]
    21a2:	69 27 6d 20 6c 69    	imul   esp,DWORD PTR [edi],0x696c206d
    21a8:	74 74                	je     0x221e
    21aa:	6c                   	ins    BYTE PTR es:[edi],dx
    21ab:	65 20 6b 69          	and    BYTE PTR gs:[ebx+0x69],ch
    21af:	74 74                	je     0x2225
    21b1:	79 20                	jns    0x21d3
    21b3:	20 20                	and    BYTE PTR [eax],ah
    21b5:	20 20                	and    BYTE PTR [eax],ah
    21b7:	20 20                	and    BYTE PTR [eax],ah
    21b9:	0a 20                	or     ah,BYTE PTR [eax]
    21bb:	20 20                	and    BYTE PTR [eax],ah
    21bd:	2c 5f                	sub    al,0x5f
    21bf:	20 20                	and    BYTE PTR [eax],ah
    21c1:	20 20                	and    BYTE PTR [eax],ah
    21c3:	20 20                	and    BYTE PTR [eax],ah
    21c5:	5f                   	pop    edi
    21c6:	20 20                	and    BYTE PTR [eax],ah
    21c8:	20 20                	and    BYTE PTR [eax],ah
    21ca:	20 20                	and    BYTE PTR [eax],ah
    21cc:	20 20                	and    BYTE PTR [eax],ah
    21ce:	20 20                	and    BYTE PTR [eax],ah
    21d0:	20 0a                	and    BYTE PTR [edx],cl
    21d2:	20 20                	and    BYTE PTR [eax],ah
    21d4:	20 7c 5c 5c          	and    BYTE PTR [esp+ebx*2+0x5c],bh
    21d8:	5f                   	pop    edi
    21d9:	2c 2d                	sub    al,0x2d
    21db:	7e 2f                	jle    0x220c
    21dd:	20 20                	and    BYTE PTR [eax],ah
    21df:	20 20                	and    BYTE PTR [eax],ah
    21e1:	20 20                	and    BYTE PTR [eax],ah
    21e3:	20 20                	and    BYTE PTR [eax],ah
    21e5:	20 20                	and    BYTE PTR [eax],ah
    21e7:	0a 20                	or     ah,BYTE PTR [eax]
    21e9:	20 20                	and    BYTE PTR [eax],ah
    21eb:	2f                   	das
    21ec:	20 5f 20             	and    BYTE PTR [edi+0x20],bl
    21ef:	20 5f 20             	and    BYTE PTR [edi+0x20],bl
    21f2:	7c 20                	jl     0x2214
    21f4:	20 20                	and    BYTE PTR [eax],ah
    21f6:	20 2c 2d 2d 2e 20 20 	and    BYTE PTR [ebp*1+0x20202e2d],ch
    21fd:	20 20                	and    BYTE PTR [eax],ah
    21ff:	0a 20                	or     ah,BYTE PTR [eax]
    2201:	20 28                	and    BYTE PTR [eax],ch
    2203:	20 20                	and    BYTE PTR [eax],ah
    2205:	40                   	inc    eax
    2206:	20 20                	and    BYTE PTR [eax],ah
    2208:	40                   	inc    eax
    2209:	20 29                	and    BYTE PTR [ecx],ch
    220b:	20 20                	and    BYTE PTR [eax],ah
    220d:	20 2f                	and    BYTE PTR [edi],ch
    220f:	20 2c 2d 27 20 20 20 	and    BYTE PTR [ebp*1+0x20202027],ch
    2216:	20 0a                	and    BYTE PTR [edx],cl
    2218:	20 20                	and    BYTE PTR [eax],ah
    221a:	20 5c 20 20          	and    BYTE PTR [eax+eiz*1+0x20],bl
    221e:	5f                   	pop    edi
    221f:	54                   	push   esp
    2220:	5f                   	pop    edi
    2221:	2f                   	das
    2222:	2d 2e 5f 28 20       	sub    eax,0x20285f2e
    2227:	28 20                	sub    BYTE PTR [eax],ah
    2229:	20 20                	and    BYTE PTR [eax],ah
    222b:	20 20                	and    BYTE PTR [eax],ah
    222d:	20 0a                	and    BYTE PTR [edx],cl
    222f:	20 20                	and    BYTE PTR [eax],ah
    2231:	20 2f                	and    BYTE PTR [edi],ch
    2233:	20 20                	and    BYTE PTR [eax],ah
    2235:	20 20                	and    BYTE PTR [eax],ah
    2237:	20 20                	and    BYTE PTR [eax],ah
    2239:	20 20                	and    BYTE PTR [eax],ah
    223b:	20 60 2e             	and    BYTE PTR [eax+0x2e],ah
    223e:	20 5c 20 20          	and    BYTE PTR [eax+eiz*1+0x20],bl
    2242:	20 20                	and    BYTE PTR [eax],ah
    2244:	20 0a                	and    BYTE PTR [edx],cl
    2246:	20 20                	and    BYTE PTR [eax],ah
    2248:	7c 20                	jl     0x226a
    224a:	20 20                	and    BYTE PTR [eax],ah
    224c:	20 20                	and    BYTE PTR [eax],ah
    224e:	20 20                	and    BYTE PTR [eax],ah
    2250:	20 20                	and    BYTE PTR [eax],ah
    2252:	5f                   	pop    edi
    2253:	20 20                	and    BYTE PTR [eax],ah
    2255:	5c                   	pop    esp
    2256:	20 7c 20 20          	and    BYTE PTR [eax+eiz*1+0x20],bh
    225a:	20 20                	and    BYTE PTR [eax],ah
    225c:	0a 20                	or     ah,BYTE PTR [eax]
    225e:	20 20                	and    BYTE PTR [eax],ah
    2260:	5c                   	pop    esp
    2261:	20 5c 20 2c          	and    BYTE PTR [eax+eiz*1+0x2c],bl
    2265:	20 20                	and    BYTE PTR [eax],ah
    2267:	2f                   	das
    2268:	20 20                	and    BYTE PTR [eax],ah
    226a:	20 20                	and    BYTE PTR [eax],ah
    226c:	20 20                	and    BYTE PTR [eax],ah
    226e:	7c 20                	jl     0x2290
    2270:	20 20                	and    BYTE PTR [eax],ah
    2272:	0a 20                	or     ah,BYTE PTR [eax]
    2274:	20 20                	and    BYTE PTR [eax],ah
    2276:	20 7c 7c 20          	and    BYTE PTR [esp+edi*2+0x20],bh
    227a:	7c 2d                	jl     0x22a9
    227c:	5f                   	pop    edi
    227d:	5c                   	pop    esp
    227e:	5f                   	pop    edi
    227f:	5f                   	pop    edi
    2280:	20 20                	and    BYTE PTR [eax],ah
    2282:	20 2f                	and    BYTE PTR [edi],ch
    2284:	20 20                	and    BYTE PTR [eax],ah
    2286:	20 20                	and    BYTE PTR [eax],ah
    2288:	20 0a                	and    BYTE PTR [edx],cl
    228a:	20 20                	and    BYTE PTR [eax],ah
    228c:	20 28                	and    BYTE PTR [eax],ch
    228e:	28 5f 2f             	sub    BYTE PTR [edi+0x2f],bl
    2291:	60                   	pusha
    2292:	28 5f 5f             	sub    BYTE PTR [edi+0x5f],bl
    2295:	5f                   	pop    edi
    2296:	5f                   	pop    edi
    2297:	2c 2d                	sub    al,0x2d
    2299:	27                   	daa
    229a:	20 20                	and    BYTE PTR [eax],ah
    229c:	20 20                	and    BYTE PTR [eax],ah
    229e:	20 20                	and    BYTE PTR [eax],ah
    22a0:	20 0a                	and    BYTE PTR [edx],cl
    22a2:	00 0a                	add    BYTE PTR [edx],cl
    22a4:	09 4d 61             	or     DWORD PTR [ebp+0x61],ecx
    22a7:	74 72                	je     0x231b
    22a9:	69 78 20 41 0a 00 0a 	imul   edi,DWORD PTR [eax+0x20],0xa000a41
    22b0:	09 4d 61             	or     DWORD PTR [ebp+0x61],ecx
    22b3:	74 72                	je     0x2327
    22b5:	69 78 20 42 0a 00 0a 	imul   edi,DWORD PTR [eax+0x20],0xa000a42
    22bc:	09 41 2a             	or     DWORD PTR [ecx+0x2a],eax
    22bf:	42                   	inc    edx
    22c0:	20 3d 20 4d 61 74    	and    BYTE PTR ds:0x74614d20,bh
    22c6:	72 69                	jb     0x2331
    22c8:	78 20                	js     0x22ea
    22ca:	43                   	inc    ebx
    22cb:	0a 00                	or     al,BYTE PTR [eax]
    22cd:	67 6c                	ins    BYTE PTR es:[di],dx
    22cf:	6f                   	outs   dx,DWORD PTR ds:[esi]
    22d0:	62 61 6c             	bound  esp,QWORD PTR [ecx+0x6c]
    22d3:	20 61 72             	and    BYTE PTR [ecx+0x72],ah
    22d6:	72 61                	jb     0x2339
    22d8:	79 20                	jns    0x22fa
    22da:	31 3a                	xor    DWORD PTR [edx],edi
    22dc:	20 0a                	and    BYTE PTR [edx],cl
    22de:	00 0a                	add    BYTE PTR [edx],cl
    22e0:	67 6c                	ins    BYTE PTR es:[di],dx
    22e2:	6f                   	outs   dx,DWORD PTR ds:[esi]
    22e3:	62 61 6c             	bound  esp,QWORD PTR [ecx+0x6c]
    22e6:	20 61 72             	and    BYTE PTR [ecx+0x72],ah
    22e9:	72 61                	jb     0x234c
    22eb:	79 20                	jns    0x230d
    22ed:	32 3a                	xor    bh,BYTE PTR [edx]
    22ef:	20 0a                	and    BYTE PTR [edx],cl
    22f1:	00 0a                	add    BYTE PTR [edx],cl
    22f3:	6d                   	ins    DWORD PTR es:[edi],dx
    22f4:	65 6d                	gs ins DWORD PTR es:[edi],dx
    22f6:	6d                   	ins    DWORD PTR es:[edi],dx
    22f7:	6f                   	outs   dx,DWORD PTR ds:[esi]
    22f8:	76 65                	jbe    0x235f
    22fa:	28 64 73 74          	sub    BYTE PTR [ebx+esi*2+0x74],ah
    22fe:	3d 67 6c 6f 62       	cmp    eax,0x626f6c67
    2303:	61                   	popa
    2304:	6c                   	ins    BYTE PTR es:[edi],dx
    2305:	5f                   	pop    edi
    2306:	61                   	popa
    2307:	72 72                	jb     0x237b
    2309:	31 2c 20             	xor    DWORD PTR [eax+eiz*1],ebp
    230c:	73 72                	jae    0x2380
    230e:	63 3d 67 6c 6f 62    	arpl   WORD PTR ds:0x626f6c67,di
    2314:	61                   	popa
    2315:	6c                   	ins    BYTE PTR es:[edi],dx
    2316:	5f                   	pop    edi
    2317:	61                   	popa
    2318:	72 72                	jb     0x238c
    231a:	32 2c 20             	xor    ch,BYTE PTR [eax+eiz*1]
    231d:	73 69                	jae    0x2388
    231f:	7a 65                	jp     0x2386
    2321:	6f                   	outs   dx,DWORD PTR ds:[esi]
    2322:	66 28 67 6c          	data16 sub BYTE PTR [edi+0x6c],ah
    2326:	6f                   	outs   dx,DWORD PTR ds:[esi]
    2327:	62 61 6c             	bound  esp,QWORD PTR [ecx+0x6c]
    232a:	5f                   	pop    edi
    232b:	61                   	popa
    232c:	72 72                	jb     0x23a0
    232e:	31 29                	xor    DWORD PTR [ecx],ebp
    2330:	29 0a                	sub    DWORD PTR [edx],ecx
    2332:	00 67 6c             	add    BYTE PTR [edi+0x6c],ah
    2335:	6f                   	outs   dx,DWORD PTR ds:[esi]
    2336:	62 61 6c             	bound  esp,QWORD PTR [ecx+0x6c]
    2339:	20 61 72             	and    BYTE PTR [ecx+0x72],ah
    233c:	72 61                	jb     0x239f
    233e:	79 20                	jns    0x2360
    2340:	31 20                	xor    DWORD PTR [eax],esp
    2342:	61                   	popa
    2343:	66 74 65             	data16 je 0x23ab
    2346:	72 20                	jb     0x2368
    2348:	6d                   	ins    DWORD PTR es:[edi],dx
    2349:	65 6d                	gs ins DWORD PTR es:[edi],dx
    234b:	6d                   	ins    DWORD PTR es:[edi],dx
    234c:	6f                   	outs   dx,DWORD PTR ds:[esi]
    234d:	76 65                	jbe    0x23b4
    234f:	20 3a                	and    BYTE PTR [edx],bh
    2351:	20 0a                	and    BYTE PTR [edx],cl
    2353:	00 0a                	add    BYTE PTR [edx],cl
    2355:	67 6c                	ins    BYTE PTR es:[di],dx
    2357:	6f                   	outs   dx,DWORD PTR ds:[esi]
    2358:	62 61 6c             	bound  esp,QWORD PTR [ecx+0x6c]
    235b:	20 61 72             	and    BYTE PTR [ecx+0x72],ah
    235e:	72 61                	jb     0x23c1
    2360:	79 20                	jns    0x2382
    2362:	33 20                	xor    esp,DWORD PTR [eax]
    2364:	69 73 20 67 6c 6f 62 	imul   esi,DWORD PTR [ebx+0x20],0x626f6c67
    236b:	61                   	popa
    236c:	6c                   	ins    BYTE PTR es:[edi],dx
    236d:	20 61 6e             	and    BYTE PTR [ecx+0x6e],ah
    2370:	64 20 74 68 65       	and    BYTE PTR fs:[eax+ebp*2+0x65],dh
    2375:	72 65                	jb     0x23dc
    2377:	66 6f                	outs   dx,WORD PTR ds:[esi]
    2379:	72 65                	jb     0x23e0
    237b:	20 7a 65             	and    BYTE PTR [edx+0x65],bh
    237e:	72 6f                	jb     0x23ef
    2380:	20 69 6e             	and    BYTE PTR [ecx+0x6e],ch
    2383:	69 74 69 61 6c 69 7a 	imul   esi,DWORD PTR [ecx+ebp*2+0x61],0x657a696c
    238a:	65 
    238b:	64 3a 20             	cmp    ah,BYTE PTR fs:[eax]
    238e:	0a 00                	or     al,BYTE PTR [eax]
    2390:	0a 6c 6f 63          	or     ch,BYTE PTR [edi+ebp*2+0x63]
    2394:	61                   	popa
    2395:	6c                   	ins    BYTE PTR es:[edi],dx
    2396:	20 61 72             	and    BYTE PTR [ecx+0x72],ah
    2399:	72 61                	jb     0x23fc
    239b:	79 20                	jns    0x23bd
    239d:	34 20                	xor    al,0x20
    239f:	69 73 20 6c 6f 63 61 	imul   esi,DWORD PTR [ebx+0x20],0x61636f6c
    23a6:	6c                   	ins    BYTE PTR es:[edi],dx
    23a7:	20 6e 6f             	and    BYTE PTR [esi+0x6f],ch
    23aa:	74 20                	je     0x23cc
    23ac:	69 6e 69 74 69 61 6c 	imul   ebp,DWORD PTR [esi+0x69],0x6c616974
    23b3:	69 7a 65 64 20 61 6e 	imul   edi,DWORD PTR [edx+0x65],0x6e612064
    23ba:	64 20 74 68 65       	and    BYTE PTR fs:[eax+ebp*2+0x65],dh
    23bf:	72 65                	jb     0x2426
    23c1:	66 6f                	outs   dx,WORD PTR ds:[esi]
    23c3:	72 65                	jb     0x242a
    23c5:	20 69 74             	and    BYTE PTR [ecx+0x74],ch
    23c8:	73 20                	jae    0x23ea
    23ca:	76 61                	jbe    0x242d
    23cc:	6c                   	ins    BYTE PTR es:[edi],dx
    23cd:	75 65                	jne    0x2434
    23cf:	73 20                	jae    0x23f1
    23d1:	61                   	popa
    23d2:	72 65                	jb     0x2439
    23d4:	20 67 61             	and    BYTE PTR [edi+0x61],ah
    23d7:	72 62                	jb     0x243b
    23d9:	61                   	popa
    23da:	67 65 3a 20          	cmp    ah,BYTE PTR gs:[bx+si]
    23de:	0a 00                	or     al,BYTE PTR [eax]
    23e0:	0a 6d 65             	or     ch,BYTE PTR [ebp+0x65]
    23e3:	6d                   	ins    DWORD PTR es:[edi],dx
    23e4:	73 65                	jae    0x244b
    23e6:	74 28                	je     0x2410
    23e8:	64 73 74             	fs jae 0x245f
    23eb:	3d 6c 6f 63 61       	cmp    eax,0x61636f6c
    23f0:	6c                   	ins    BYTE PTR es:[edi],dx
    23f1:	5f                   	pop    edi
    23f2:	61                   	popa
    23f3:	72 72                	jb     0x2467
    23f5:	34 2c                	xor    al,0x2c
    23f7:	20 76 61             	and    BYTE PTR [esi+0x61],dh
    23fa:	6c                   	ins    BYTE PTR es:[edi],dx
    23fb:	75 65                	jne    0x2462
    23fd:	3d 32 32 2c 20       	cmp    eax,0x202c3232
    2402:	73 69                	jae    0x246d
    2404:	7a 65                	jp     0x246b
    2406:	6f                   	outs   dx,DWORD PTR ds:[esi]
    2407:	66 28 6c 6f 63       	data16 sub BYTE PTR [edi+ebp*2+0x63],ch
    240c:	61                   	popa
    240d:	6c                   	ins    BYTE PTR es:[edi],dx
    240e:	5f                   	pop    edi
    240f:	61                   	popa
    2410:	72 72                	jb     0x2484
    2412:	34 29                	xor    al,0x29
    2414:	29 0a                	sub    DWORD PTR [edx],ecx
    2416:	00 20                	add    BYTE PTR [eax],ah
    2418:	09 20                	or     DWORD PTR [eax],esp
    241a:	20 20                	and    BYTE PTR [eax],ah
    241c:	20 09                	and    BYTE PTR [ecx],cl
    241e:	3e 3e 20 72 65       	ds and BYTE PTR ds:[edx+0x65],dh
    2423:	63 75 72             	arpl   WORD PTR [ebp+0x72],si
    2426:	73 69                	jae    0x2491
    2428:	6f                   	outs   dx,DWORD PTR ds:[esi]
    2429:	6e                   	outs   dx,BYTE PTR ds:[esi]
    242a:	5f                   	pop    edi
    242b:	70 6c                	jo     0x2499
    242d:	61                   	popa
    242e:	79 00                	jns    0x2430
    2430:	20 09                	and    BYTE PTR [ecx],cl
    2432:	20 20                	and    BYTE PTR [eax],ah
    2434:	20 20                	and    BYTE PTR [eax],ah
    2436:	09 3e                	or     DWORD PTR [esi],edi
    2438:	3e 20 73 6f          	and    BYTE PTR ds:[ebx+0x6f],dh
    243c:	72 74                	jb     0x24b2
    243e:	5f                   	pop    edi
    243f:	70 6c                	jo     0x24ad
    2441:	61                   	popa
    2442:	79 00                	jns    0x2444
    2444:	20 09                	and    BYTE PTR [ecx],cl
    2446:	20 20                	and    BYTE PTR [eax],ah
    2448:	20 20                	and    BYTE PTR [eax],ah
    244a:	09 3e                	or     DWORD PTR [esi],edi
    244c:	3e 20 73 74          	and    BYTE PTR ds:[ebx+0x74],dh
    2450:	72 75                	jb     0x24c7
    2452:	63 74 75 72          	arpl   WORD PTR [ebp+esi*2+0x72],si
    2456:	65 5f                	gs pop edi
    2458:	70 6c                	jo     0x24c6
    245a:	61                   	popa
    245b:	79 00                	jns    0x245d
    245d:	20 09                	and    BYTE PTR [ecx],cl
    245f:	20 20                	and    BYTE PTR [eax],ah
    2461:	20 20                	and    BYTE PTR [eax],ah
    2463:	09 3e                	or     DWORD PTR [esi],edi
    2465:	3e 20 6d 61          	and    BYTE PTR ds:[ebp+0x61],ch
    2469:	74 72                	je     0x24dd
    246b:	69 63 65 73 5f 70 6c 	imul   esp,DWORD PTR [ebx+0x65],0x6c705f73
    2472:	61                   	popa
    2473:	79 00                	jns    0x2475
    2475:	20 09                	and    BYTE PTR [ecx],cl
    2477:	20 20                	and    BYTE PTR [eax],ah
    2479:	20 20                	and    BYTE PTR [eax],ah
    247b:	09 3e                	or     DWORD PTR [esi],edi
    247d:	3e 20 6d 65          	and    BYTE PTR ds:[ebp+0x65],ch
    2481:	6d                   	ins    DWORD PTR es:[edi],dx
    2482:	5f                   	pop    edi
    2483:	70 6c                	jo     0x24f1
    2485:	61                   	popa
    2486:	79 00                	jns    0x2488
    2488:	20 09                	and    BYTE PTR [ecx],cl
    248a:	20 20                	and    BYTE PTR [eax],ah
    248c:	20 20                	and    BYTE PTR [eax],ah
    248e:	09 3e                	or     DWORD PTR [esi],edi
    2490:	3e 20 70 6f          	and    BYTE PTR ds:[eax+0x6f],dh
    2494:	6c                   	ins    BYTE PTR es:[edi],dx
    2495:	79 6d                	jns    0x2504
    2497:	6f                   	outs   dx,DWORD PTR ds:[esi]
    2498:	72 70                	jb     0x250a
    249a:	68 69 73 6d 5f       	push   0x5f6d7369
    249f:	70 6c                	jo     0x250d
    24a1:	61                   	popa
    24a2:	79 00                	jns    0x24a4
    24a4:	20 09                	and    BYTE PTR [ecx],cl
    24a6:	20 20                	and    BYTE PTR [eax],ah
    24a8:	20 20                	and    BYTE PTR [eax],ah
    24aa:	09 3e                	or     DWORD PTR [esi],edi
    24ac:	3e 20 6d 61          	and    BYTE PTR ds:[ebp+0x61],ch
    24b0:	63 68 69             	arpl   WORD PTR [eax+0x69],bp
    24b3:	6e                   	outs   dx,BYTE PTR ds:[esi]
    24b4:	65 5f                	gs pop edi
    24b6:	63 6f 64             	arpl   WORD PTR [edi+0x64],bp
    24b9:	65 5f                	gs pop edi
    24bb:	70 6c                	jo     0x2529
    24bd:	61                   	popa
    24be:	79 00                	jns    0x24c0
	...
    3000:	22 22                	and    ah,BYTE PTR [edx]
    3002:	22 22                	and    ah,BYTE PTR [edx]
    3004:	a4                   	movs   BYTE PTR es:[edi],BYTE PTR ds:[esi]
    3005:	01 e0                	add    eax,esp
    3007:	01 00                	add    DWORD PTR [eax],eax
    3009:	00 e7                	add    bh,ah
    300b:	75 00                	jne    0x300d
    300d:	00 00                	add    BYTE PTR [eax],al
    300f:	7c df                	jl     0x2ff0
    3011:	03 00                	add    eax,DWORD PTR [eax]
    3013:	00 e0                	add    al,ah
    3015:	03 00                	add    eax,DWORD PTR [eax]
    3017:	00 e1                	add    cl,ah
    3019:	03 00                	add    eax,DWORD PTR [eax]
    301b:	00 71 03             	add    BYTE PTR [ecx+0x3],dh
    301e:	00 00                	add    BYTE PTR [eax],al
    3020:	72 03                	jb     0x3025
    3022:	00 00                	add    BYTE PTR [eax],al
    3024:	73 03                	jae    0x3029
	...
