
examples/out/bin/curr.i386.bin:     file format binary


Disassembly of section .data:

00000000 <.data>:
       0:	03 c0                	add    eax,eax
       2:	7f fc                	jg     0x0
       4:	dc 00                	fadd   QWORD PTR [eax]
       6:	00 01                	add    BYTE PTR [ecx],al
       8:	fc                   	cld
       9:	00 00                	add    BYTE PTR [eax],al
       b:	00 55 89             	add    BYTE PTR [ebp-0x77],dl
       e:	e5 81                	in     eax,0x81
      10:	ec                   	in     al,dx
      11:	00 00                	add    BYTE PTR [eax],al
      13:	00 00                	add    BYTE PTR [eax],al
      15:	e8 de 06 00 00       	call   0x6f8
      1a:	e8 e9 ff ff ff       	call   0x8
      1f:	c9                   	leave
      20:	c3                   	ret
      21:	55                   	push   ebp
      22:	89 e5                	mov    ebp,esp
      24:	81 ec 08 00 00 00    	sub    esp,0x8
      2a:	8b 45 08             	mov    eax,DWORD PTR [ebp+0x8]
      2d:	89 45 fc             	mov    DWORD PTR [ebp-0x4],eax
      30:	b8 00 00 00 00       	mov    eax,0x0
      35:	89 45 f8             	mov    DWORD PTR [ebp-0x8],eax
      38:	8b 45 10             	mov    eax,DWORD PTR [ebp+0x10]
      3b:	c1 e8 02             	shr    eax,0x2
      3e:	8b 4d f8             	mov    ecx,DWORD PTR [ebp-0x8]
      41:	39 c1                	cmp    ecx,eax
      43:	0f 83 22 00 00 00    	jae    0x6b
      49:	e9 0b 00 00 00       	jmp    0x59
      4e:	8b 45 f8             	mov    eax,DWORD PTR [ebp-0x8]
      51:	89 c1                	mov    ecx,eax
      53:	40                   	inc    eax
      54:	89 45 f8             	mov    DWORD PTR [ebp-0x8],eax
      57:	eb df                	jmp    0x38
      59:	8b 45 fc             	mov    eax,DWORD PTR [ebp-0x4]
      5c:	89 c1                	mov    ecx,eax
      5e:	83 c0 04             	add    eax,0x4
      61:	89 45 fc             	mov    DWORD PTR [ebp-0x4],eax
      64:	8b 45 0c             	mov    eax,DWORD PTR [ebp+0xc]
      67:	89 01                	mov    DWORD PTR [ecx],eax
      69:	eb e3                	jmp    0x4e
      6b:	8b 45 08             	mov    eax,DWORD PTR [ebp+0x8]
      6e:	c9                   	leave
      6f:	c3                   	ret
      70:	55                   	push   ebp
      71:	89 e5                	mov    ebp,esp
      73:	81 ec 0c 00 00 00    	sub    esp,0xc
      79:	8b 45 08             	mov    eax,DWORD PTR [ebp+0x8]
      7c:	89 45 fc             	mov    DWORD PTR [ebp-0x4],eax
      7f:	8b 45 0c             	mov    eax,DWORD PTR [ebp+0xc]
      82:	89 45 f8             	mov    DWORD PTR [ebp-0x8],eax
      85:	b8 00 00 00 00       	mov    eax,0x0
      8a:	89 45 f4             	mov    DWORD PTR [ebp-0xc],eax
      8d:	8b 45 10             	mov    eax,DWORD PTR [ebp+0x10]
      90:	c1 e8 02             	shr    eax,0x2
      93:	8b 4d f4             	mov    ecx,DWORD PTR [ebp-0xc]
      96:	39 c1                	cmp    ecx,eax
      98:	0f 83 2c 00 00 00    	jae    0xca
      9e:	e9 0b 00 00 00       	jmp    0xae
      a3:	8b 45 f4             	mov    eax,DWORD PTR [ebp-0xc]
      a6:	89 c1                	mov    ecx,eax
      a8:	40                   	inc    eax
      a9:	89 45 f4             	mov    DWORD PTR [ebp-0xc],eax
      ac:	eb df                	jmp    0x8d
      ae:	8b 45 fc             	mov    eax,DWORD PTR [ebp-0x4]
      b1:	89 c1                	mov    ecx,eax
      b3:	83 c0 04             	add    eax,0x4
      b6:	89 45 fc             	mov    DWORD PTR [ebp-0x4],eax
      b9:	8b 45 f8             	mov    eax,DWORD PTR [ebp-0x8]
      bc:	89 c2                	mov    edx,eax
      be:	83 c0 04             	add    eax,0x4
      c1:	89 45 f8             	mov    DWORD PTR [ebp-0x8],eax
      c4:	8b 12                	mov    edx,DWORD PTR [edx]
      c6:	89 11                	mov    DWORD PTR [ecx],edx
      c8:	eb d9                	jmp    0xa3
      ca:	8b 45 10             	mov    eax,DWORD PTR [ebp+0x10]
      cd:	c9                   	leave
      ce:	c3                   	ret
      cf:	55                   	push   ebp
      d0:	89 e5                	mov    ebp,esp
      d2:	81 ec 00 00 00 00    	sub    esp,0x0
      d8:	8b 05 00 a0 04 08    	mov    eax,DWORD PTR ds:0x804a000
      de:	8b 4d 08             	mov    ecx,DWORD PTR [ebp+0x8]
      e1:	89 08                	mov    DWORD PTR [eax],ecx
      e3:	c9                   	leave
      e4:	c3                   	ret
      e5:	55                   	push   ebp
      e6:	89 e5                	mov    ebp,esp
      e8:	81 ec 0c 00 00 00    	sub    esp,0xc
      ee:	8b 45 08             	mov    eax,DWORD PTR [ebp+0x8]
      f1:	89 45 fc             	mov    DWORD PTR [ebp-0x4],eax
      f4:	b8 00 00 00 00       	mov    eax,0x0
      f9:	89 45 f4             	mov    DWORD PTR [ebp-0xc],eax
      fc:	8b 45 fc             	mov    eax,DWORD PTR [ebp-0x4]
      ff:	89 c1                	mov    ecx,eax
     101:	83 c0 04             	add    eax,0x4
     104:	89 45 fc             	mov    DWORD PTR [ebp-0x4],eax
     107:	8b 09                	mov    ecx,DWORD PTR [ecx]
     109:	89 4d f8             	mov    DWORD PTR [ebp-0x8],ecx
     10c:	8b 45 f4             	mov    eax,DWORD PTR [ebp-0xc]
     10f:	83 c0 04             	add    eax,0x4
     112:	89 45 f4             	mov    DWORD PTR [ebp-0xc],eax
     115:	8b 45 f8             	mov    eax,DWORD PTR [ebp-0x8]
     118:	c1 f8 18             	sar    eax,0x18
     11b:	81 e0 ff 00 00 00    	and    eax,0xff
     121:	83 f8 00             	cmp    eax,0x0
     124:	0f 85 05 00 00 00    	jne    0x12f
     12a:	e9 a1 00 00 00       	jmp    0x1d0
     12f:	8b 45 f8             	mov    eax,DWORD PTR [ebp-0x8]
     132:	c1 f8 18             	sar    eax,0x18
     135:	81 e0 ff 00 00 00    	and    eax,0xff
     13b:	50                   	push   eax
     13c:	e8 8e ff ff ff       	call   0xcf
     141:	83 c4 04             	add    esp,0x4
     144:	8b 45 f8             	mov    eax,DWORD PTR [ebp-0x8]
     147:	c1 f8 10             	sar    eax,0x10
     14a:	81 e0 ff 00 00 00    	and    eax,0xff
     150:	83 f8 00             	cmp    eax,0x0
     153:	0f 85 05 00 00 00    	jne    0x15e
     159:	e9 72 00 00 00       	jmp    0x1d0
     15e:	8b 45 f8             	mov    eax,DWORD PTR [ebp-0x8]
     161:	c1 f8 10             	sar    eax,0x10
     164:	81 e0 ff 00 00 00    	and    eax,0xff
     16a:	50                   	push   eax
     16b:	e8 5f ff ff ff       	call   0xcf
     170:	83 c4 04             	add    esp,0x4
     173:	8b 45 f8             	mov    eax,DWORD PTR [ebp-0x8]
     176:	c1 f8 08             	sar    eax,0x8
     179:	81 e0 ff 00 00 00    	and    eax,0xff
     17f:	83 f8 00             	cmp    eax,0x0
     182:	0f 85 05 00 00 00    	jne    0x18d
     188:	e9 43 00 00 00       	jmp    0x1d0
     18d:	8b 45 f8             	mov    eax,DWORD PTR [ebp-0x8]
     190:	c1 f8 08             	sar    eax,0x8
     193:	81 e0 ff 00 00 00    	and    eax,0xff
     199:	50                   	push   eax
     19a:	e8 30 ff ff ff       	call   0xcf
     19f:	83 c4 04             	add    esp,0x4
     1a2:	8b 45 f8             	mov    eax,DWORD PTR [ebp-0x8]
     1a5:	81 e0 ff 00 00 00    	and    eax,0xff
     1ab:	83 f8 00             	cmp    eax,0x0
     1ae:	0f 85 05 00 00 00    	jne    0x1b9
     1b4:	e9 17 00 00 00       	jmp    0x1d0
     1b9:	8b 45 f8             	mov    eax,DWORD PTR [ebp-0x8]
     1bc:	81 e0 ff 00 00 00    	and    eax,0xff
     1c2:	50                   	push   eax
     1c3:	e8 07 ff ff ff       	call   0xcf
     1c8:	83 c4 04             	add    esp,0x4
     1cb:	e9 2c ff ff ff       	jmp    0xfc
     1d0:	c9                   	leave
     1d1:	c3                   	ret
     1d2:	55                   	push   ebp
     1d3:	89 e5                	mov    ebp,esp
     1d5:	81 ec 0c 00 00 00    	sub    esp,0xc
     1db:	8b 45 08             	mov    eax,DWORD PTR [ebp+0x8]
     1de:	89 45 fc             	mov    DWORD PTR [ebp-0x4],eax
     1e1:	b8 00 00 00 00       	mov    eax,0x0
     1e6:	89 45 f4             	mov    DWORD PTR [ebp-0xc],eax
     1e9:	8b 45 fc             	mov    eax,DWORD PTR [ebp-0x4]
     1ec:	89 c1                	mov    ecx,eax
     1ee:	83 c0 04             	add    eax,0x4
     1f1:	89 45 fc             	mov    DWORD PTR [ebp-0x4],eax
     1f4:	8b 09                	mov    ecx,DWORD PTR [ecx]
     1f6:	89 4d f8             	mov    DWORD PTR [ebp-0x8],ecx
     1f9:	8b 45 f4             	mov    eax,DWORD PTR [ebp-0xc]
     1fc:	83 c0 04             	add    eax,0x4
     1ff:	89 45 f4             	mov    DWORD PTR [ebp-0xc],eax
     202:	8b 45 f8             	mov    eax,DWORD PTR [ebp-0x8]
     205:	c1 f8 18             	sar    eax,0x18
     208:	81 e0 ff 00 00 00    	and    eax,0xff
     20e:	83 f8 00             	cmp    eax,0x0
     211:	0f 85 09 00 00 00    	jne    0x220
     217:	8b 45 f4             	mov    eax,DWORD PTR [ebp-0xc]
     21a:	48                   	dec    eax
     21b:	e9 62 00 00 00       	jmp    0x282
     220:	8b 45 f8             	mov    eax,DWORD PTR [ebp-0x8]
     223:	c1 f8 10             	sar    eax,0x10
     226:	81 e0 ff 00 00 00    	and    eax,0xff
     22c:	83 f8 00             	cmp    eax,0x0
     22f:	0f 85 0b 00 00 00    	jne    0x240
     235:	8b 45 f4             	mov    eax,DWORD PTR [ebp-0xc]
     238:	83 e8 02             	sub    eax,0x2
     23b:	e9 42 00 00 00       	jmp    0x282
     240:	8b 45 f8             	mov    eax,DWORD PTR [ebp-0x8]
     243:	c1 f8 08             	sar    eax,0x8
     246:	81 e0 ff 00 00 00    	and    eax,0xff
     24c:	83 f8 00             	cmp    eax,0x0
     24f:	0f 85 0b 00 00 00    	jne    0x260
     255:	8b 45 f4             	mov    eax,DWORD PTR [ebp-0xc]
     258:	83 e8 03             	sub    eax,0x3
     25b:	e9 22 00 00 00       	jmp    0x282
     260:	8b 45 f8             	mov    eax,DWORD PTR [ebp-0x8]
     263:	81 e0 ff 00 00 00    	and    eax,0xff
     269:	83 f8 00             	cmp    eax,0x0
     26c:	0f 85 0b 00 00 00    	jne    0x27d
     272:	8b 45 f4             	mov    eax,DWORD PTR [ebp-0xc]
     275:	83 e8 04             	sub    eax,0x4
     278:	e9 05 00 00 00       	jmp    0x282
     27d:	e9 67 ff ff ff       	jmp    0x1e9
     282:	c9                   	leave
     283:	c3                   	ret
     284:	55                   	push   ebp
     285:	89 e5                	mov    ebp,esp
     287:	81 ec 04 00 00 00    	sub    esp,0x4
     28d:	8b 45 08             	mov    eax,DWORD PTR [ebp+0x8]
     290:	8b 4d 10             	mov    ecx,DWORD PTR [ebp+0x10]
     293:	0f af c1             	imul   eax,ecx
     296:	8b 4d 0c             	mov    ecx,DWORD PTR [ebp+0xc]
     299:	8b 55 14             	mov    edx,DWORD PTR [ebp+0x14]
     29c:	0f af ca             	imul   ecx,edx
     29f:	01 c8                	add    eax,ecx
     2a1:	89 45 fc             	mov    DWORD PTR [ebp-0x4],eax
     2a4:	8b 45 fc             	mov    eax,DWORD PTR [ebp-0x4]
     2a7:	c9                   	leave
     2a8:	c3                   	ret
     2a9:	55                   	push   ebp
     2aa:	89 e5                	mov    ebp,esp
     2ac:	81 ec 10 00 00 00    	sub    esp,0x10
     2b2:	b8 00 00 00 00       	mov    eax,0x0
     2b7:	89 45 f4             	mov    DWORD PTR [ebp-0xc],eax
     2ba:	8b 45 0c             	mov    eax,DWORD PTR [ebp+0xc]
     2bd:	48                   	dec    eax
     2be:	8b 4d f4             	mov    ecx,DWORD PTR [ebp-0xc]
     2c1:	39 c1                	cmp    ecx,eax
     2c3:	0f 8d c3 00 00 00    	jge    0x38c
     2c9:	e9 0b 00 00 00       	jmp    0x2d9
     2ce:	8b 45 f4             	mov    eax,DWORD PTR [ebp-0xc]
     2d1:	89 c1                	mov    ecx,eax
     2d3:	40                   	inc    eax
     2d4:	89 45 f4             	mov    DWORD PTR [ebp-0xc],eax
     2d7:	eb e1                	jmp    0x2ba
     2d9:	b8 00 00 00 00       	mov    eax,0x0
     2de:	89 45 f8             	mov    DWORD PTR [ebp-0x8],eax
     2e1:	b8 00 00 00 00       	mov    eax,0x0
     2e6:	89 45 f0             	mov    DWORD PTR [ebp-0x10],eax
     2e9:	8b 45 0c             	mov    eax,DWORD PTR [ebp+0xc]
     2ec:	48                   	dec    eax
     2ed:	8b 4d f4             	mov    ecx,DWORD PTR [ebp-0xc]
     2f0:	29 c8                	sub    eax,ecx
     2f2:	8b 4d f0             	mov    ecx,DWORD PTR [ebp-0x10]
     2f5:	39 c1                	cmp    ecx,eax
     2f7:	0f 8d 79 00 00 00    	jge    0x376
     2fd:	e9 0b 00 00 00       	jmp    0x30d
     302:	8b 45 f0             	mov    eax,DWORD PTR [ebp-0x10]
     305:	89 c1                	mov    ecx,eax
     307:	40                   	inc    eax
     308:	89 45 f0             	mov    DWORD PTR [ebp-0x10],eax
     30b:	eb dc                	jmp    0x2e9
     30d:	8b 45 f0             	mov    eax,DWORD PTR [ebp-0x10]
     310:	c1 e0 02             	shl    eax,0x2
     313:	8b 4d 08             	mov    ecx,DWORD PTR [ebp+0x8]
     316:	01 c1                	add    ecx,eax
     318:	8b 45 f0             	mov    eax,DWORD PTR [ebp-0x10]
     31b:	40                   	inc    eax
     31c:	c1 e0 02             	shl    eax,0x2
     31f:	8b 55 08             	mov    edx,DWORD PTR [ebp+0x8]
     322:	01 c2                	add    edx,eax
     324:	8b 09                	mov    ecx,DWORD PTR [ecx]
     326:	8b 12                	mov    edx,DWORD PTR [edx]
     328:	39 d1                	cmp    ecx,edx
     32a:	0f 8e 44 00 00 00    	jle    0x374
     330:	8b 45 f0             	mov    eax,DWORD PTR [ebp-0x10]
     333:	c1 e0 02             	shl    eax,0x2
     336:	8b 4d 08             	mov    ecx,DWORD PTR [ebp+0x8]
     339:	01 c1                	add    ecx,eax
     33b:	8b 09                	mov    ecx,DWORD PTR [ecx]
     33d:	89 4d fc             	mov    DWORD PTR [ebp-0x4],ecx
     340:	8b 45 f0             	mov    eax,DWORD PTR [ebp-0x10]
     343:	c1 e0 02             	shl    eax,0x2
     346:	8b 4d 08             	mov    ecx,DWORD PTR [ebp+0x8]
     349:	01 c1                	add    ecx,eax
     34b:	8b 45 f0             	mov    eax,DWORD PTR [ebp-0x10]
     34e:	40                   	inc    eax
     34f:	c1 e0 02             	shl    eax,0x2
     352:	8b 55 08             	mov    edx,DWORD PTR [ebp+0x8]
     355:	01 c2                	add    edx,eax
     357:	8b 12                	mov    edx,DWORD PTR [edx]
     359:	89 11                	mov    DWORD PTR [ecx],edx
     35b:	8b 45 f0             	mov    eax,DWORD PTR [ebp-0x10]
     35e:	40                   	inc    eax
     35f:	c1 e0 02             	shl    eax,0x2
     362:	8b 4d 08             	mov    ecx,DWORD PTR [ebp+0x8]
     365:	01 c1                	add    ecx,eax
     367:	8b 45 fc             	mov    eax,DWORD PTR [ebp-0x4]
     36a:	89 01                	mov    DWORD PTR [ecx],eax
     36c:	b8 01 00 00 00       	mov    eax,0x1
     371:	89 45 f8             	mov    DWORD PTR [ebp-0x8],eax
     374:	eb 8c                	jmp    0x302
     376:	8b 45 f8             	mov    eax,DWORD PTR [ebp-0x8]
     379:	83 f8 00             	cmp    eax,0x0
     37c:	0f 85 05 00 00 00    	jne    0x387
     382:	e9 05 00 00 00       	jmp    0x38c
     387:	e9 42 ff ff ff       	jmp    0x2ce
     38c:	c9                   	leave
     38d:	c3                   	ret
     38e:	55                   	push   ebp
     38f:	89 e5                	mov    ebp,esp
     391:	81 ec 0c 00 00 00    	sub    esp,0xc
     397:	b8 01 00 00 00       	mov    eax,0x1
     39c:	89 45 fc             	mov    DWORD PTR [ebp-0x4],eax
     39f:	b8 00 00 00 00       	mov    eax,0x0
     3a4:	89 45 f8             	mov    DWORD PTR [ebp-0x8],eax
     3a7:	8b 45 08             	mov    eax,DWORD PTR [ebp+0x8]
     3aa:	83 f8 00             	cmp    eax,0x0
     3ad:	0f 8d 15 00 00 00    	jge    0x3c8
     3b3:	b8 01 00 00 00       	mov    eax,0x1
     3b8:	89 45 f8             	mov    DWORD PTR [ebp-0x8],eax
     3bb:	b8 00 00 00 00       	mov    eax,0x0
     3c0:	8b 4d 08             	mov    ecx,DWORD PTR [ebp+0x8]
     3c3:	29 c8                	sub    eax,ecx
     3c5:	89 45 08             	mov    DWORD PTR [ebp+0x8],eax
     3c8:	8b 45 08             	mov    eax,DWORD PTR [ebp+0x8]
     3cb:	8b 4d fc             	mov    ecx,DWORD PTR [ebp-0x4]
     3ce:	99                   	cdq
     3cf:	f7 f9                	idiv   ecx
     3d1:	83 f8 0a             	cmp    eax,0xa
     3d4:	0f 8e 10 00 00 00    	jle    0x3ea
     3da:	8b 45 fc             	mov    eax,DWORD PTR [ebp-0x4]
     3dd:	b9 0a 00 00 00       	mov    ecx,0xa
     3e2:	0f af c1             	imul   eax,ecx
     3e5:	89 45 fc             	mov    DWORD PTR [ebp-0x4],eax
     3e8:	eb de                	jmp    0x3c8
     3ea:	8b 45 f8             	mov    eax,DWORD PTR [ebp-0x8]
     3ed:	83 f8 00             	cmp    eax,0x0
     3f0:	0f 8e 13 00 00 00    	jle    0x409
     3f6:	b8 2d 00 00 00       	mov    eax,0x2d
     3fb:	50                   	push   eax
     3fc:	e8 ce fc ff ff       	call   0xcf
     401:	83 c4 04             	add    esp,0x4
     404:	e9 00 00 00 00       	jmp    0x409
     409:	8b 45 fc             	mov    eax,DWORD PTR [ebp-0x4]
     40c:	83 f8 00             	cmp    eax,0x0
     40f:	0f 8e 33 00 00 00    	jle    0x448
     415:	8b 45 08             	mov    eax,DWORD PTR [ebp+0x8]
     418:	8b 4d fc             	mov    ecx,DWORD PTR [ebp-0x4]
     41b:	99                   	cdq
     41c:	f7 f9                	idiv   ecx
     41e:	b9 0a 00 00 00       	mov    ecx,0xa
     423:	99                   	cdq
     424:	f7 f9                	idiv   ecx
     426:	89 55 f4             	mov    DWORD PTR [ebp-0xc],edx
     429:	8b 45 f4             	mov    eax,DWORD PTR [ebp-0xc]
     42c:	83 c0 30             	add    eax,0x30
     42f:	50                   	push   eax
     430:	e8 9a fc ff ff       	call   0xcf
     435:	83 c4 04             	add    esp,0x4
     438:	8b 45 fc             	mov    eax,DWORD PTR [ebp-0x4]
     43b:	b9 0a 00 00 00       	mov    ecx,0xa
     440:	99                   	cdq
     441:	f7 f9                	idiv   ecx
     443:	89 45 fc             	mov    DWORD PTR [ebp-0x4],eax
     446:	eb c1                	jmp    0x409
     448:	c9                   	leave
     449:	c3                   	ret
     44a:	55                   	push   ebp
     44b:	89 e5                	mov    ebp,esp
     44d:	81 ec 14 00 00 00    	sub    esp,0x14
     453:	b8 08 00 00 00       	mov    eax,0x8
     458:	50                   	push   eax
     459:	b8 00 00 00 00       	mov    eax,0x0
     45e:	50                   	push   eax
     45f:	8d 45 f8             	lea    eax,[ebp-0x8]
     462:	50                   	push   eax
     463:	e8 b9 fb ff ff       	call   0x21
     468:	83 c4 0c             	add    esp,0xc
     46b:	b8 f9 ff ff ff       	mov    eax,0xfffffff9
     470:	89 45 f8             	mov    DWORD PTR [ebp-0x8],eax
     473:	b8 02 00 00 00       	mov    eax,0x2
     478:	89 45 fc             	mov    DWORD PTR [ebp-0x4],eax
     47b:	b8 08 00 00 00       	mov    eax,0x8
     480:	50                   	push   eax
     481:	b8 00 00 00 00       	mov    eax,0x0
     486:	50                   	push   eax
     487:	8d 45 f0             	lea    eax,[ebp-0x10]
     48a:	50                   	push   eax
     48b:	e8 91 fb ff ff       	call   0x21
     490:	83 c4 0c             	add    esp,0xc
     493:	b8 03 00 00 00       	mov    eax,0x3
     498:	89 45 f0             	mov    DWORD PTR [ebp-0x10],eax
     49b:	b8 fc ff ff ff       	mov    eax,0xfffffffc
     4a0:	89 45 f4             	mov    DWORD PTR [ebp-0xc],eax
     4a3:	b8 00 90 04 08       	mov    eax,0x8049000
     4a8:	50                   	push   eax
     4a9:	e8 37 fc ff ff       	call   0xe5
     4ae:	83 c4 04             	add    esp,0x4
     4b1:	b8 0c 90 04 08       	mov    eax,0x804900c
     4b6:	50                   	push   eax
     4b7:	e8 29 fc ff ff       	call   0xe5
     4bc:	83 c4 04             	add    esp,0x4
     4bf:	8b 45 f8             	mov    eax,DWORD PTR [ebp-0x8]
     4c2:	50                   	push   eax
     4c3:	e8 c6 fe ff ff       	call   0x38e
     4c8:	83 c4 04             	add    esp,0x4
     4cb:	b8 20 00 00 00       	mov    eax,0x20
     4d0:	50                   	push   eax
     4d1:	e8 f9 fb ff ff       	call   0xcf
     4d6:	83 c4 04             	add    esp,0x4
     4d9:	b8 18 90 04 08       	mov    eax,0x8049018
     4de:	50                   	push   eax
     4df:	e8 01 fc ff ff       	call   0xe5
     4e4:	83 c4 04             	add    esp,0x4
     4e7:	8b 45 fc             	mov    eax,DWORD PTR [ebp-0x4]
     4ea:	50                   	push   eax
     4eb:	e8 9e fe ff ff       	call   0x38e
     4f0:	83 c4 04             	add    esp,0x4
     4f3:	b8 20 00 00 00       	mov    eax,0x20
     4f8:	50                   	push   eax
     4f9:	e8 d1 fb ff ff       	call   0xcf
     4fe:	83 c4 04             	add    esp,0x4
     501:	b8 0a 00 00 00       	mov    eax,0xa
     506:	50                   	push   eax
     507:	e8 c3 fb ff ff       	call   0xcf
     50c:	83 c4 04             	add    esp,0x4
     50f:	b8 20 90 04 08       	mov    eax,0x8049020
     514:	50                   	push   eax
     515:	e8 cb fb ff ff       	call   0xe5
     51a:	83 c4 04             	add    esp,0x4
     51d:	8b 45 f0             	mov    eax,DWORD PTR [ebp-0x10]
     520:	50                   	push   eax
     521:	e8 68 fe ff ff       	call   0x38e
     526:	83 c4 04             	add    esp,0x4
     529:	b8 20 00 00 00       	mov    eax,0x20
     52e:	50                   	push   eax
     52f:	e8 9b fb ff ff       	call   0xcf
     534:	83 c4 04             	add    esp,0x4
     537:	b8 2c 90 04 08       	mov    eax,0x804902c
     53c:	50                   	push   eax
     53d:	e8 a3 fb ff ff       	call   0xe5
     542:	83 c4 04             	add    esp,0x4
     545:	8b 45 f4             	mov    eax,DWORD PTR [ebp-0xc]
     548:	50                   	push   eax
     549:	e8 40 fe ff ff       	call   0x38e
     54e:	83 c4 04             	add    esp,0x4
     551:	b8 20 00 00 00       	mov    eax,0x20
     556:	50                   	push   eax
     557:	e8 73 fb ff ff       	call   0xcf
     55c:	83 c4 04             	add    esp,0x4
     55f:	b8 0a 00 00 00       	mov    eax,0xa
     564:	50                   	push   eax
     565:	e8 65 fb ff ff       	call   0xcf
     56a:	83 c4 04             	add    esp,0x4
     56d:	b8 34 90 04 08       	mov    eax,0x8049034
     572:	50                   	push   eax
     573:	e8 6d fb ff ff       	call   0xe5
     578:	83 c4 04             	add    esp,0x4
     57b:	81 ec 08 00 00 00    	sub    esp,0x8
     581:	89 e0                	mov    eax,esp
     583:	b9 08 00 00 00       	mov    ecx,0x8
     588:	51                   	push   ecx
     589:	8d 4d f0             	lea    ecx,[ebp-0x10]
     58c:	51                   	push   ecx
     58d:	50                   	push   eax
     58e:	89 45 ec             	mov    DWORD PTR [ebp-0x14],eax
     591:	e8 da fa ff ff       	call   0x70
     596:	83 c4 0c             	add    esp,0xc
     599:	81 ec 08 00 00 00    	sub    esp,0x8
     59f:	89 e0                	mov    eax,esp
     5a1:	b9 08 00 00 00       	mov    ecx,0x8
     5a6:	51                   	push   ecx
     5a7:	8d 4d f8             	lea    ecx,[ebp-0x8]
     5aa:	51                   	push   ecx
     5ab:	50                   	push   eax
     5ac:	89 45 ec             	mov    DWORD PTR [ebp-0x14],eax
     5af:	e8 bc fa ff ff       	call   0x70
     5b4:	83 c4 0c             	add    esp,0xc
     5b7:	e8 c8 fc ff ff       	call   0x284
     5bc:	83 c4 10             	add    esp,0x10
     5bf:	50                   	push   eax
     5c0:	e8 c9 fd ff ff       	call   0x38e
     5c5:	83 c4 04             	add    esp,0x4
     5c8:	b8 01 00 00 00       	mov    eax,0x1
     5cd:	c9                   	leave
     5ce:	c3                   	ret
     5cf:	55                   	push   ebp
     5d0:	89 e5                	mov    ebp,esp
     5d2:	81 ec 24 00 00 00    	sub    esp,0x24
     5d8:	b8 14 00 00 00       	mov    eax,0x14
     5dd:	50                   	push   eax
     5de:	b8 00 00 00 00       	mov    eax,0x0
     5e3:	50                   	push   eax
     5e4:	8d 45 ec             	lea    eax,[ebp-0x14]
     5e7:	50                   	push   eax
     5e8:	e8 34 fa ff ff       	call   0x21
     5ed:	83 c4 0c             	add    esp,0xc
     5f0:	b8 ff ff ff ff       	mov    eax,0xffffffff
     5f5:	89 45 ec             	mov    DWORD PTR [ebp-0x14],eax
     5f8:	b8 cc fd ff ff       	mov    eax,0xfffffdcc
     5fd:	89 45 f0             	mov    DWORD PTR [ebp-0x10],eax
     600:	b8 a4 01 00 00       	mov    eax,0x1a4
     605:	89 45 f4             	mov    DWORD PTR [ebp-0xc],eax
     608:	b8 45 00 00 00       	mov    eax,0x45
     60d:	89 45 f8             	mov    DWORD PTR [ebp-0x8],eax
     610:	b8 b0 04 00 00       	mov    eax,0x4b0
     615:	89 45 fc             	mov    DWORD PTR [ebp-0x4],eax
     618:	b8 05 00 00 00       	mov    eax,0x5
     61d:	89 45 e8             	mov    DWORD PTR [ebp-0x18],eax
     620:	b8 02 00 00 00       	mov    eax,0x2
     625:	89 45 dc             	mov    DWORD PTR [ebp-0x24],eax
     628:	8b 45 f4             	mov    eax,DWORD PTR [ebp-0xc]
     62b:	50                   	push   eax
     62c:	e8 5d fd ff ff       	call   0x38e
     631:	83 c4 04             	add    esp,0x4
     634:	b8 00 00 00 00       	mov    eax,0x0
     639:	89 45 e4             	mov    DWORD PTR [ebp-0x1c],eax
     63c:	8b 45 e4             	mov    eax,DWORD PTR [ebp-0x1c]
     63f:	8b 4d e8             	mov    ecx,DWORD PTR [ebp-0x18]
     642:	39 c8                	cmp    eax,ecx
     644:	0f 8d 3c 00 00 00    	jge    0x686
     64a:	e9 0b 00 00 00       	jmp    0x65a
     64f:	8b 45 e4             	mov    eax,DWORD PTR [ebp-0x1c]
     652:	89 c1                	mov    ecx,eax
     654:	40                   	inc    eax
     655:	89 45 e4             	mov    DWORD PTR [ebp-0x1c],eax
     658:	eb e2                	jmp    0x63c
     65a:	8b 45 e4             	mov    eax,DWORD PTR [ebp-0x1c]
     65d:	c1 e0 02             	shl    eax,0x2
     660:	8d 4d ec             	lea    ecx,[ebp-0x14]
     663:	01 c1                	add    ecx,eax
     665:	8b 09                	mov    ecx,DWORD PTR [ecx]
     667:	89 4d e0             	mov    DWORD PTR [ebp-0x20],ecx
     66a:	8b 45 e0             	mov    eax,DWORD PTR [ebp-0x20]
     66d:	50                   	push   eax
     66e:	e8 1b fd ff ff       	call   0x38e
     673:	83 c4 04             	add    esp,0x4
     676:	b8 20 00 00 00       	mov    eax,0x20
     67b:	50                   	push   eax
     67c:	e8 4e fa ff ff       	call   0xcf
     681:	83 c4 04             	add    esp,0x4
     684:	eb c9                	jmp    0x64f
     686:	b8 0a 00 00 00       	mov    eax,0xa
     68b:	50                   	push   eax
     68c:	e8 3e fa ff ff       	call   0xcf
     691:	83 c4 04             	add    esp,0x4
     694:	8b 45 e8             	mov    eax,DWORD PTR [ebp-0x18]
     697:	50                   	push   eax
     698:	8d 45 ec             	lea    eax,[ebp-0x14]
     69b:	50                   	push   eax
     69c:	e8 08 fc ff ff       	call   0x2a9
     6a1:	83 c4 08             	add    esp,0x8
     6a4:	b8 00 00 00 00       	mov    eax,0x0
     6a9:	89 45 e4             	mov    DWORD PTR [ebp-0x1c],eax
     6ac:	8b 45 e4             	mov    eax,DWORD PTR [ebp-0x1c]
     6af:	8b 4d e8             	mov    ecx,DWORD PTR [ebp-0x18]
     6b2:	39 c8                	cmp    eax,ecx
     6b4:	0f 8d 3c 00 00 00    	jge    0x6f6
     6ba:	e9 0b 00 00 00       	jmp    0x6ca
     6bf:	8b 45 e4             	mov    eax,DWORD PTR [ebp-0x1c]
     6c2:	89 c1                	mov    ecx,eax
     6c4:	40                   	inc    eax
     6c5:	89 45 e4             	mov    DWORD PTR [ebp-0x1c],eax
     6c8:	eb e2                	jmp    0x6ac
     6ca:	8b 45 e4             	mov    eax,DWORD PTR [ebp-0x1c]
     6cd:	c1 e0 02             	shl    eax,0x2
     6d0:	8d 4d ec             	lea    ecx,[ebp-0x14]
     6d3:	01 c1                	add    ecx,eax
     6d5:	8b 09                	mov    ecx,DWORD PTR [ecx]
     6d7:	89 4d e0             	mov    DWORD PTR [ebp-0x20],ecx
     6da:	8b 45 e0             	mov    eax,DWORD PTR [ebp-0x20]
     6dd:	50                   	push   eax
     6de:	e8 ab fc ff ff       	call   0x38e
     6e3:	83 c4 04             	add    esp,0x4
     6e6:	b8 20 00 00 00       	mov    eax,0x20
     6eb:	50                   	push   eax
     6ec:	e8 de f9 ff ff       	call   0xcf
     6f1:	83 c4 04             	add    esp,0x4
     6f4:	eb c9                	jmp    0x6bf
     6f6:	c9                   	leave
     6f7:	c3                   	ret
     6f8:	55                   	push   ebp
     6f9:	89 e5                	mov    ebp,esp
     6fb:	81 ec 08 00 00 00    	sub    esp,0x8
     701:	b8 19 00 00 00       	mov    eax,0x19
     706:	89 45 fc             	mov    DWORD PTR [ebp-0x4],eax
     709:	b8 0a 00 00 00       	mov    eax,0xa
     70e:	50                   	push   eax
     70f:	e8 bb f9 ff ff       	call   0xcf
     714:	83 c4 04             	add    esp,0x4
     717:	8b 45 fc             	mov    eax,DWORD PTR [ebp-0x4]
     71a:	89 c1                	mov    ecx,eax
     71c:	48                   	dec    eax
     71d:	89 45 fc             	mov    DWORD PTR [ebp-0x4],eax
     720:	83 f9 00             	cmp    ecx,0x0
     723:	0f 84 10 00 00 00    	je     0x739
     729:	b8 2d 00 00 00       	mov    eax,0x2d
     72e:	50                   	push   eax
     72f:	e8 9b f9 ff ff       	call   0xcf
     734:	83 c4 04             	add    esp,0x4
     737:	eb de                	jmp    0x717
     739:	b8 0a 00 00 00       	mov    eax,0xa
     73e:	50                   	push   eax
     73f:	e8 8b f9 ff ff       	call   0xcf
     744:	83 c4 04             	add    esp,0x4
     747:	e8 83 fe ff ff       	call   0x5cf
     74c:	b8 19 00 00 00       	mov    eax,0x19
     751:	89 45 f8             	mov    DWORD PTR [ebp-0x8],eax
     754:	b8 0a 00 00 00       	mov    eax,0xa
     759:	50                   	push   eax
     75a:	e8 70 f9 ff ff       	call   0xcf
     75f:	83 c4 04             	add    esp,0x4
     762:	8b 45 f8             	mov    eax,DWORD PTR [ebp-0x8]
     765:	89 c1                	mov    ecx,eax
     767:	48                   	dec    eax
     768:	89 45 f8             	mov    DWORD PTR [ebp-0x8],eax
     76b:	83 f9 00             	cmp    ecx,0x0
     76e:	0f 84 10 00 00 00    	je     0x784
     774:	b8 2d 00 00 00       	mov    eax,0x2d
     779:	50                   	push   eax
     77a:	e8 50 f9 ff ff       	call   0xcf
     77f:	83 c4 04             	add    esp,0x4
     782:	eb de                	jmp    0x762
     784:	b8 0a 00 00 00       	mov    eax,0xa
     789:	50                   	push   eax
     78a:	e8 40 f9 ff ff       	call   0xcf
     78f:	83 c4 04             	add    esp,0x4
     792:	e8 b3 fc ff ff       	call   0x44a
     797:	b8 45 00 00 00       	mov    eax,0x45
     79c:	c9                   	leave
     79d:	c3                   	ret
	...
     ffe:	00 00                	add    BYTE PTR [eax],al
    1000:	0a 73 74             	or     dh,BYTE PTR [ebx+0x74]
    1003:	72 75                	jb     0x107a
    1005:	63 74 73 3a          	arpl   WORD PTR [ebx+esi*2+0x3a],si
    1009:	20 0a                	and    BYTE PTR [edx],cl
    100b:	00 09                	add    BYTE PTR [ecx],cl
    100d:	20 20                	and    BYTE PTR [eax],ah
    100f:	20 76 31             	and    BYTE PTR [esi+0x31],dh
    1012:	2e 78 20             	cs js  0x1035
    1015:	3d 20 00 76 31       	cmp    eax,0x31760020
    101a:	2e 79 20             	cs jns 0x103d
    101d:	3d 20 00 09 20       	cmp    eax,0x20090020
    1022:	20 20                	and    BYTE PTR [eax],ah
    1024:	76 32                	jbe    0x1058
    1026:	2e 78 20             	cs js  0x1049
    1029:	3d 20 00 76 32       	cmp    eax,0x32760020
    102e:	2e 79 20             	cs jns 0x1051
    1031:	3d 20 00 0a 64       	cmp    eax,0x640a0020
    1036:	6f                   	outs   dx,DWORD PTR ds:[esi]
    1037:	74 3a                	je     0x1073
    1039:	0a 09                	or     cl,BYTE PTR [ecx]
    103b:	09 76 31             	or     DWORD PTR [esi+0x31],esi
    103e:	2a 76 32             	sub    dh,BYTE PTR [esi+0x32]
    1041:	20 3d 20 20 00 00    	and    BYTE PTR ds:0x2020,bh
	...
    1fff:	00 22                	add    BYTE PTR [edx],ah
    2001:	22 22                	and    ah,BYTE PTR [edx]
    2003:	22                   	.byte 0x22
